******************************************************************************
                  TI ARM Linker PC v20.2.1                     
******************************************************************************
>> Linked Wed Jun 24 16:25:23 2020

OUTPUT FILE NAME:   <02_MainBoard.out>
ENTRY POINT SYMBOL: "_c_int00"  address: 00010ea1


MEMORY CONFIGURATION

         name            origin    length      used     unused   attr    fill
----------------------  --------  ---------  --------  --------  ----  --------
  MAIN                  00000000   00040000  0001926f  00026d91  R  X
  INFO                  00200000   00004000  00000000  00004000  R  X
  SRAM_CODE             01000000   00010000  0000bb2f  000044d1  RW X
  SRAM_DATA             20000000   00010000  0000bb2f  000044d1  RW  


SEGMENT ALLOCATION MAP

run origin  load origin   length   init length attrs members
----------  ----------- ---------- ----------- ----- -------
00000000    00000000    00019280   00019280    r-x
  00000000    00000000    0000003c   0000003c    r-- .resetVecs
  00000040    00000040    00015692   00015692    r-x .text
  000156d8    000156d8    00003699   00003699    r-- .const
  00018d74    00018d74    00000010   00000010    r-- .init_array
  00018d88    00018d88    000004f8   000004f8    r-- .cinit
20000140    20000140    00008000   00000000    r--
  20000140    20000140    00008000   00000000    r-- .priheap
20008180    20008180    000035ef   00000000    rw-
  20008180    20008180    00002730   00000000    rw- .bss
  2000a8b0    2000a8b0    00000ebf   00000000    rw- .data
2000fc00    2000fc00    00000400   00000000    rw-
  2000fc00    2000fc00    00000400   00000000    rw- .stack


SECTION ALLOCATION MAP

 output                                  attributes/
section   page    origin      length       input sections
--------  ----  ----------  ----------   ----------------
.text      0    00000040    00015692     
                  00000040    00000ebe     EnergiaCoreMSP432.lib : WString.obj (.text)
                  00000efe    00000002     drivers_msp432p401x.aem4f : PWMTimerMSP432.oem4f (.text:PWMTimerMSP432_init)
                  00000f00    00000a4e     rtsv7M4_T_le_v4SPD16_eabi.lib : _printfi.c.obj (.text:__TI_printfi)
                  0000194e    00000002     dpl_msp432p401x.aem4f : PowerMSP432_tirtos.oem4f (.text:PowerMSP432_initPolicy)
                  00001950    000009c0     rtsv7M4_T_le_v4SPD16_eabi.lib : e_pow.c.obj (.text:pow)
                  00002310    000006a8     EnergiaCoreMSP432.lib : HardwareSerial.obj (.text)
                  000029b8    000004d8                           : Print.obj (.text)
                  00002e90    000004c8                           : Stream.obj (.text)
                  00003358    000004c8     ConnService.obj (.text:_ZN11ConnService16msrDataSerializeEP14ProtoMsrData_tPhjbb)
                  00003820    000004c5     sysbios.aem4f : BIOS.obj (.text:xdc_runtime_System_doPrint__I)
                  00003ce5    00000001     --HOLE-- [fill = 0]
                  00003ce6    00000002     drivers_msp432p401x.aem4f : UARTMSP432.oem4f (.text:UARTMSP432_init)
                  00003ce8    0000047c     EnergiaCoreMSP432.lib : wiring_analog.obj (.text)
                  00004164    00000004     msp432p4xx_driverlib.lib : cpu.o (.text:CPU_wfi)
                  00004168    00000430     sysbios.aem4f : BIOS.obj (.text:ti_sysbios_family_arm_m3_Hwi_excDumpRegs__I)
                  00004598    000003a2     TinyGPS++.obj (.text:_ZN11TinyGPSPlus16endOfTermHandlerEv)
                  0000493a    00000002     rtsv7M4_T_le_v4SPD16_eabi.lib : stdlib_typeinfo.cpp.obj (.text:_ZNSt9type_infoD1Ev)
                  0000493c    00000384     ConnService.obj (.text:_ZN13TinyGsmSim80012waitResponseEjR6StringPKcS3_S3_S3_S3_)
                  00004cc0    000002f8     drivers_msp432p401x.aem4f : PowerMSP432.oem4f (.text:Power_sleep)
                  00004fb8    000002ec     sysbios.aem4f : BIOS.obj (.text:ti_sysbios_knl_Semaphore_pend__E)
                  000052a4    000002dc     ConnService.obj (.text:_ZN13TinyGsmSim80011gprsConnectEPKcS1_S1_)
                  00005580    000002d0     drivers_msp432p401x.aem4f : UARTMSP432.oem4f (.text:UARTMSP432_open)
                  00005850    000002b6     MainBoard.obj (.text:_ZN9MainBoard4initEv)
                  00005b06    00000002     rtsv7M4_T_le_v4SPD16_eabi.lib : _lock.c.obj (.text:_nop)
                  00005b08    000002a8     Airio.obj (.text:_Z4loopv)
                  00005db0    000002a0     rtsv7M4_T_le_v4SPD16_eabi.lib : mktime.c.obj (.text:__mktime32)
                  00006050    00000298     sysbios.aem4f : BIOS.obj (.text:ti_sysbios_knl_Task_Instance_finalize__E)
                  000062e8    0000028a     msp432p4xx_driverlib.lib : pcm.o (.text:__PCM_setPowerStateAdvanced)
                  00006572    00000002     rtsv7M4_T_le_v4SPD16_eabi.lib : div0.asm.obj (.text)
                  00006574    00000288     drivers_msp432p401x.aem4f : PowerMSP432.oem4f (.text:initPerfControl)
                  000067fc    00000270     rtsv7M4_T_le_v4SPD16_eabi.lib : _printfi.c.obj (.text:_pconv_a)
                  00006a6c    00000004     dpl_msp432p401x.aem4f : ClockP_tirtos.oem4f (.text:ClockP_setTimeout)
                  00006a70    00000248     sysbios.aem4f : BIOS.obj (.text:ti_sysbios_heaps_HeapMem_freeUnprotected__E)
                  00006cb8    00000240     EnergiaCoreMSP432.lib : wiring.obj (.text)
                  00006ef8    00000240     SerialTransfer.obj (.text:_ZN14SerialTransfer9availableEv)
                  00007138    00000230     ConnService.obj (.text:_ZN11ConnService14httpPostBinaryEPKcPhjR6String)
                  00007368    00000230     ConnService.obj (.text:_ZN11ConnService5beginEv)
                  00007598    00000220     ConnService.obj (.text:_ZN11ConnService7httpGetEPKcRiR6StringRj)
                  000077b8    00000214     sysbios.aem4f : BIOS.obj (.text:ti_sysbios_knl_Task_sleep__E)
                  000079cc    00000208     drivers_msp432p401x.aem4f : PWMTimerMSP432.oem4f (.text:PWMTimerMSP432_open)
                  00007bd4    00000004     dpl_msp432p401x.aem4f : ClockP_tirtos.oem4f (.text:ClockP_start)
                  00007bd8    00000200     sysbios.aem4f : BIOS.obj (.text:ti_sysbios_heaps_HeapMem_allocUnprotected__E)
                  00007dd8    000001f8     debug_pem4f.oem4f (.text:xdc_runtime_System_printfExtend__I)
                  00007fd0    000001f4     sysbios.aem4f : BIOS.obj (.text:ti_sysbios_family_arm_m3_Hwi_excHandlerMax__I)
                  000081c4    00000004     dpl_msp432p401x.aem4f : ClockP_tirtos.oem4f (.text:ClockP_stop)
                  000081c8    000001ec     sysbios.aem4f : BIOS.obj (.text:ti_sysbios_knl_Task_Instance_init__E)
                  000083b4    000001d0     rtsv7M4_T_le_v4SPD16_eabi.lib : _printfi.c.obj (.text:_pconv_g)
                  00008584    000001cf     HttpClient.obj (.text:_ZN10HttpClient12startRequestEPKcS1_S1_iPKh)
                  00008753    00000001     --HOLE-- [fill = 0]
                  00008754    000001b6     rtsv7M4_T_le_v4SPD16_eabi.lib : fd_add_t2.asm.obj (.text)
                  0000890a    00000002     debug_pem4f.oem4f (.text:ti_sysbios_BIOS_nullFunc__I)
                  0000890c    000001a0     EnergiaCoreMSP432.lib : Board_init.obj (.text)
                  00008aac    00000192                           : itoa.obj (.text)
                  00008c3e    00000002     debug_pem4f.oem4f (.text:ti_uia_loggers_LoggerStopMode_setFilterLevel__E)
                  00008c40    00000180     sysbios.aem4f : BIOS.obj (.text:ti_sysbios_family_arm_m3_Hwi_excBusFault__I)
                  00008dc0    00000178                   : BIOS.obj (.text:ti_sysbios_family_arm_m3_Hwi_excUsageFault__I)
                  00008f38    00000170     drivers_msp432p401x.aem4f : GPIOMSP432.oem4f (.text:GPIO_setConfig)
                  000090a8    00000168     EnergiaCoreMSP432.lib : IPAddress.obj (.text)
                  00009210    00000160     HttpClient.obj (.text:_ZN10HttpClient10readHeaderEv)
                  00009370    00000160     msp432p4xx_driverlib.lib : adc14.o (.text:_getIndexForMemRegister)
                  000094d0    00000160     sysbios.aem4f : BIOS.obj (.text:ti_sysbios_heaps_HeapTrack_free__E)
                  00009630    0000015c     msp432p4xx_driverlib.lib : pcm.o (.text:__PCM_setPowerModeAdvanced)
                  0000978c    00000004     dpl_msp432p401x.aem4f : HwiP_tirtos.oem4f (.text:HwiP_disable)
                  00009790    0000015c     sysbios.aem4f : BIOS.obj (.text:ti_sysbios_family_arm_m3_Hwi_excMemFault__I)
                  000098ec    00000158     rtsv7M4_T_le_v4SPD16_eabi.lib : e_sqrt.c.obj (.text:sqrt)
                  00009a44    00000156     HttpClient.obj (.text:_ZN10HttpClient18responseStatusCodeEv)
                  00009b9a    00000002     ti.uia.loggers.aem4f : LoggerStopMode.oem4f (.text:ti_uia_loggers_LoggerStopMode_setPriority__E)
                  00009b9c    00000148     ConnService.obj (.text:_ZN13TinyGsmSim8009modemReadEjh)
                  00009ce4    00000004     dpl_msp432p401x.aem4f : SemaphoreP_tirtos.oem4f (.text:SemaphoreP_post)
                  00009ce8    00000148     sysbios.aem4f : BIOS.obj (.text:ti_sysbios_family_arm_msp432_Seconds_set__E)
                  00009e30    00000144                   : BIOS.obj (.text:ti_sysbios_knl_Clock_workFunc__E)
                  00009f74    00000004     drivers_msp432p401x.aem4f : WatchdogMSP432.oem4f (.text:WatchdogMSP432_convertMsToTicks)
                  00009f78    00000140     sysbios.aem4f : BIOS.obj (.text:ti_sysbios_family_arm_m3_Hwi_dispatchC__I)
                  0000a0b8    0000013e     debug_pem4f.oem4f (.text:ti_uia_loggers_LoggerStopMode_writeMemoryRange__E)
                  0000a1f6    00000002     --HOLE-- [fill = 0]
                  0000a1f8    0000013c     EnergiaCoreMSP432.lib : wiring_digital.obj (.text)
                  0000a334    0000013c     rtsv7M4_T_le_v4SPD16_eabi.lib : _printfi.c.obj (.text:_pconv_e)
                  0000a470    0000013c     sysbios.aem4f : BIOS.obj (.text:ti_sysbios_heaps_HeapMem_Instance_init__E)
                  0000a5ac    00000004     rtsv7M4_T_le_v4SPD16_eabi.lib : typeinfo.c.obj (.text:_ZN10__cxxabiv117__class_type_infoD1Ev)
                  0000a5b0    0000013c     sysbios.aem4f : BIOS.obj (.text:ti_sysbios_knl_Semaphore_post__E)
                  0000a6ec    00000004     rtsv7M4_T_le_v4SPD16_eabi.lib : typeinfo.c.obj (.text:_ZN10__cxxabiv120__si_class_type_infoD1Ev)
                  0000a6f0    0000013c     sysbios.aem4f : BIOS.obj (.text:xdc_runtime_Core_createObject__I)
                  0000a82c    00000136     rtsv7M4_T_le_v4SPD16_eabi.lib : fd_div_t2.asm.obj (.text)
                  0000a962    00000002     --HOLE-- [fill = 0]
                  0000a964    00000130                                   : strtol.c.obj (.text:strtol)
                  0000aa94    00000124                                   : _printfi.c.obj (.text:fcvt)
                  0000abb8    00000124     sysbios.aem4f : BIOS.obj (.text:ti_sysbios_knl_Swi_run__I)
                  0000acdc    00000004     rtsv7M4_T_le_v4SPD16_eabi.lib : new.cpp.obj (.text:_ZdlPvj)
                  0000ace0    00000120     sysbios.aem4f : BIOS.obj (.text:xdc_runtime_Startup_startMods__I)
                  0000ae00    0000011c     msp432p4xx_driverlib.lib : uart.o (.text:UART_initModule)
                  0000af1c    0000011c     HttpClient.obj (.text:_ZN10HttpClient18sendInitialHeadersEPKcS1_)
                  0000b038    0000011c     sysbios.aem4f : BIOS.obj (.text:ti_sysbios_knl_Clock_Instance_init__E)
                  0000b154    00000004     rtsv7M4_T_le_v4SPD16_eabi.lib : exit.c.obj (.text:abort:abort)
                  0000b158    00000118     sysbios.aem4f : BIOS.obj (.text:ti_sysbios_knl_Task_postInit__I)
                  0000b270    00000114     EnergiaCoreMSP432.lib : SerialObjects.obj (.text)
                  0000b384    00000110     rtsv7M4_T_le_v4SPD16_eabi.lib : s_scalbn.c.obj (.text:scalbn)
                  0000b494    00000004     debug_pem4f.oem4f (.text:ti_sysbios_BIOS_RtsGateProxy_enter__E)
                  0000b498    00000110     sysbios.aem4f : BIOS.obj (.text:xdc_runtime_Error_policyDefault__E)
                  0000b5a8    0000010c     debug_pem4f.oem4f (.text:ti_uia_loggers_LoggerStopMode_write8__E)
                  0000b6b4    00000108     TinyGPS++.obj (.text:_ZN11TinyGPSPlus6encodeEc)
                  0000b7bc    00000108     msp432p4xx_driverlib.lib : pcm.o (.text:__PCM_setCoreVoltageLevelAdvanced)
                  0000b8c4    00000004     debug_pem4f.oem4f (.text:ti_sysbios_BIOS_RtsGateProxy_leave__E)
                  0000b8c8    00000104     sysbios.aem4f : BIOS.obj (.text:xdc_runtime_Core_constructObject__I)
                  0000b9cc    000000fc     drivers_msp432p401x.aem4f : ADCMSP432.oem4f (.text:ADCMSP432_convert)
                  0000bac8    000000fc     rtsv7M4_T_le_v4SPD16_eabi.lib : fd_mul_t2.asm.obj (.text)
                  0000bbc4    00000004     debug_pem4f.oem4f (.text:ti_sysbios_family_arm_m3_Hwi_delete)
                  0000bbc8    000000f8     sysbios.aem4f : BIOS.obj (.text:ti_sysbios_family_arm_msp432_init_Boot_configureClocksHigh)
                  0000bcc0    000000f4     debug_pem4f.oem4f (.text:ti_uia_loggers_LoggerStopMode_write4__E)
                  0000bdb4    000000f0     sysbios.aem4f : m3_Hwi_asm.obj (.text:ti_sysbios_family_arm_m3_Hwi_dispatch__I)
                  0000bea4    000000e8     debug_pem4f.oem4f (.text:ti_uia_loggers_LoggerStopMode_write2__E)
                  0000bf8c    000000e4     msp432p4xx_driverlib.lib : cs.o (.text:CS_startHFXTWithTimeout)
                  0000c070    000000e4     HttpClient.obj (.text:_ZN10HttpClient9availableEv)
                  0000c154    000000e4     debug_pem4f.oem4f (.text:ti_uia_loggers_LoggerStopMode_write1__E)
                  0000c238    000000e0     msp432p4xx_driverlib.lib : cs.o (.text:CS_startLFXTWithTimeout)
                  0000c318    000000e0     ConnService.obj (.text:_ZN11ConnService15sendMsrDataSendEP14ProtoMsrData_tb)
                  0000c3f8    000000dc     msp432p4xx_driverlib.lib : cs.o (.text:_CSGetHFXTFrequency)
                  0000c4d4    000000d8     debug_pem4f.oem4f (.text:ti_uia_loggers_LoggerStopMode_write0__E)
                  0000c5ac    000000d4     ConnService.obj (.text:_ZN13TinyGsmSim80012getModemInfoEv)
                  0000c680    000000d0     ConnService.obj (.text:_ZN13TinyGsmSim8009GsmClient4readEPhj)
                  0000c750    000000d0     sysbios.aem4f : BIOS.obj (.text:ti_sysbios_family_arm_m3_Hwi_excDebugMon__I)
                  0000c820    000000d0                   : BIOS.obj (.text:ti_sysbios_family_arm_m3_Hwi_excHardFault__I)
                  0000c8f0    000000d0                   : BIOS.obj (.text:ti_sysbios_knl_Task_schedule__I)
                  0000c9c0    000000ca     drivers_msp432p401x.aem4f : UARTMSP432.oem4f (.text:UARTMSP432_hwiIntFxn)
                  0000ca8a    00000002     --HOLE-- [fill = 0]
                  0000ca8c    000000c8     ConnService.obj (.text:_ZN13TinyGsmSim80012modemConnectEPKcthbi)
                  0000cb54    00000004     debug_pem4f.oem4f (.text:ti_sysbios_family_arm_m3_TaskSupport_Module__startupDone__S)
                  0000cb58    000000c8     sysbios.aem4f : BIOS.obj (.text:ti_sysbios_knl_Task_exit__E)
                  0000cc20    000000c0     ConnService.obj (.text:_ZN13TinyGsmSim8009modemSendEPKvjh)
                  0000cce0    000000bc     ConnService.obj (.text:_ZN13TinyGsmSim80012getSimStatusEm)
                  0000cd9c    000000bc     MainBoard.obj (.text:_ZN9MainBoard8gsmPowerEb)
                  0000ce58    000000bc     sysbios.aem4f : BIOS.obj (.text:ti_sysbios_knl_Task_startCore__E)
                  0000cf14    00000004     debug_pem4f.oem4f (.text:ti_sysbios_heaps_HeapMem_Module_GateProxy_enter__E)
                  0000cf18    000000bc     sysbios.aem4f : BIOS.obj (.text:ti_sysbios_utils_Load_updateLoads__E)
                  0000cfd4    000000b8     drivers_msp432p401x.aem4f : UARTMSP432.oem4f (.text:initHw)
                  0000d08c    000000b8                               : UARTMSP432.oem4f (.text:readTaskCallback)
                  0000d144    000000b4     msp432p4xx_driverlib.lib : adc14.o (.text:ADC14_configureConversionMemory)
                  0000d1f8    000000b4     drivers_msp432p401x.aem4f : UARTMSP432.oem4f (.text:UARTMSP432_control)
                  0000d2ac    00000004     debug_pem4f.oem4f (.text:ti_sysbios_heaps_HeapMem_Module_GateProxy_leave__E)
                  0000d2b0    000000b4     sysbios.aem4f : BIOS.obj (.text:ti_sysbios_gates_GateMutex_enter__E)
                  0000d364    00000004     debug_pem4f.oem4f (.text:ti_sysbios_knl_Clock_TimerProxy_getMaxTicks__E)
                  0000d368    000000b4     sysbios.aem4f : BIOS.obj (.text:ti_sysbios_knl_Task_checkStacks__E)
                  0000d41c    000000b2     drivers_msp432p401x.aem4f : WatchdogMSP432.oem4f (.text:WatchdogMSP432_open)
                  0000d4ce    00000002     --HOLE-- [fill = 0]
                  0000d4d0    000000b1     rtsv7M4_T_le_v4SPD16_eabi.lib : _printfi.c.obj (.text:_ltostr)
                  0000d581    00000001     --HOLE-- [fill = 0]
                  0000d582    00000006     drivers_msp432p401x.aem4f : WatchdogMSP432.oem4f (.text:WatchdogMSP432_control)
                  0000d588    000000b0     sysbios.aem4f : BIOS.obj (.text:ti_sysbios_knl_Task_yield__E)
                  0000d638    000000b0                   : BIOS.obj (.text:ti_sysbios_utils_Load_idleFxn__E)
                  0000d6e8    000000ae     TinyGPS++.obj (.text:_ZN11TinyGPSPlusC1Ev)
                  0000d796    00000002     --HOLE-- [fill = 0]
                  0000d798    000000ad     ConnService.obj (.text:_ZN11ConnService17getServerDateTimeERjb)
                  0000d845    00000003     --HOLE-- [fill = 0]
                  0000d848    000000ac     drivers_msp432p401x.aem4f : GPIOMSP432.oem4f (.text:GPIO_init)
                  0000d8f4    000000ac     ConnService.obj (.text:_ZN13TinyGsmSim80017modemGetAvailableEh)
                  0000d9a0    000000ac     sysbios.aem4f : BIOS.obj (.text:ti_sysbios_family_arm_m3_Hwi_Instance_init__E)
                  0000da4c    00000004     debug_pem4f.oem4f (.text:ti_sysbios_knl_Clock_TimerProxy_start__E)
                  0000da50    000000ac     sysbios.aem4f : BIOS.obj (.text:ti_sysbios_knl_Swi_post__E)
                  0000dafc    000000a8     drivers_msp432p401x.aem4f : UARTMSP432.oem4f (.text:UARTMSP432_write)
                  0000dba4    000000a8     ConnService.obj (.text:_ZN13TinyGsmSim8009GsmClient7connectE9IPAddressti)
                  0000dc4c    000000a8     drivers_msp432p401x.aem4f : UARTMSP432.oem4f (.text:readTaskBlocking)
                  0000dcf4    00000004     debug_pem4f.oem4f (.text:ti_sysbios_knl_Clock_TimerProxy_stop__E)
                  0000dcf8    000000a8     sysbios.aem4f : BIOS.obj (.text:ti_sysbios_family_arm_msp432_Timer_periodicStub__E)
                  0000dda0    000000a8                   : BIOS.obj (.text:ti_sysbios_knl_Task_blockI__E)
                  0000de48    000000a5     HttpClient.obj (.text:_ZN10HttpClient12responseBodyEv)
                  0000deed    00000003     --HOLE-- [fill = 0]
                  0000def0    000000a4     drivers_msp432p401x.aem4f : PWMTimerMSP432.oem4f (.text:PWMTimerMSP432_stop)
                  0000df94    000000a4     TinyGPS++.obj (.text:_ZN11TinyGPSPlus12parseDegreesEPKcR10RawDegrees)
                  0000e038    000000a4     sysbios.aem4f : BIOS.obj (.text:ti_sysbios_knl_Clock_Instance_finalize__E)
                  0000e0dc    00000004     debug_pem4f.oem4f (.text:ti_sysbios_knl_Clock_delete)
                  0000e0e0    000000a4     sysbios.aem4f : BIOS.obj (.text:ti_sysbios_rts_ti_ReentSupport_getReent__F)
                  0000e184    00000004     debug_pem4f.oem4f (.text:ti_sysbios_knl_Semaphore_delete)
                  0000e188    000000a2     sysbios.aem4f : BIOS.obj (.text:xdc_runtime_Text_putSite__E)
                  0000e22a    00000002     --HOLE-- [fill = 0]
                  0000e22c    000000a0     ConnService.obj (.text:_ZN13TinyGsmSim8009GsmClient4stopEv)
                  0000e2cc    000000a0     auto_init.aem4f : auto_init.oem4f (.text)
                  0000e36c    000000a0     drivers_msp432p401x.aem4f : UARTMSP432.oem4f (.text:readIsrTextCallback)
                  0000e40c    0000009c                               : PowerMSP432.oem4f (.text:Power_init)
                  0000e4a8    0000009c     Airio.obj (.text:_Z5setupv)
                  0000e544    0000009c     rtsv7M4_T_le_v4SPD16_eabi.lib : memcpy_t2.asm.obj (.text)
                  0000e5e0    0000009c     sysbios.aem4f : BIOS.obj (.text:ti_sysbios_knl_Semaphore_Instance_init__E)
                  0000e67c    00000098     ConnService.obj (.text:_ZN11TinyGsmFifoIhLj64EE3getEPhib)
                  0000e714    00000096     rtsv7M4_T_le_v4SPD16_eabi.lib : ull_div_t2.asm.obj (.text)
                  0000e7aa    00000002     --HOLE-- [fill = 0]
                  0000e7ac    00000094     drivers_msp432p401x.aem4f : PWMTimerMSP432.oem4f (.text:PWMTimerMSP432_setDuty)
                  0000e840    00000094     main.obj (.text:main)
                  0000e8d4    00000004     debug_pem4f.oem4f (.text:ti_sysbios_knl_Task_delete)
                  0000e8d8    00000094     sysbios.aem4f : BIOS.obj (.text:ti_sysbios_family_arm_m3_Hwi_initNVIC__E)
                  0000e96c    00000004     ti.uia.loggers.aem4f : LoggerStopMode.oem4f (.text:ti_uia_loggers_LoggerStopMode_getContents__E)
                  0000e970    00000094     sysbios.aem4f : BIOS.obj (.text:ti_sysbios_heaps_HeapTrack_alloc__E)
                  0000ea04    00000004     debug_pem4f.oem4f (.text:ti_uia_loggers_LoggerStopMode_getFilterLevel__E)
                  0000ea08    00000094     sysbios.aem4f : BIOS.obj (.text:ti_sysbios_knl_Task_unblockI__E)
                  0000ea9c    00000092     drivers_msp432p401x.aem4f : UARTMSP432.oem4f (.text:UARTMSP432_close)
                  0000eb2e    00000092                               : UARTMSP432.oem4f (.text:writeData)
                  0000ebc0    00000090     sysbios.aem4f : BIOS.obj (.text:ti_sysbios_knl_Task_Module_startup__E)
                  0000ec50    00000090     ti.uia.loggers.aem4f : LoggerStopMode.oem4f (.text:ti_uia_loggers_LoggerStopMode_initQueueDescriptor__E)
                  0000ece0    0000008e     TinyGPS++.obj (.text:_ZN11TinyGPSPlus12parseDecimalEPKc)
                  0000ed6e    00000002     --HOLE-- [fill = 0]
                  0000ed70    0000008c     drivers_msp432p401x.aem4f : ADCMSP432.oem4f (.text:ADCMSP432_open)
                  0000edfc    0000008c                               : UARTMSP432.oem4f (.text:readIsrTextBlocking)
                  0000ee88    0000008c     sysbios.aem4f : m3_TaskSupport_asm.obj (.text:ti_sysbios_family_arm_m3_TaskSupport_buildTaskStack)
                  0000ef14    00000004     ti.uia.loggers.aem4f : LoggerStopMode.oem4f (.text:ti_uia_loggers_LoggerStopMode_getInstanceId__E)
                  0000ef18    0000008c     sysbios.aem4f : BIOS.obj (.text:ti_sysbios_heaps_HeapTrack_Instance_finalize__E)
                  0000efa4    00000004     ti.uia.loggers.aem4f : LoggerStopMode.oem4f (.text:ti_uia_loggers_LoggerStopMode_getMaxLength__E)
                  0000efa8    0000008c     sysbios.aem4f : BIOS.obj (.text:xdc_runtime_Text_putMod__E)
                  0000f034    00000088     drivers_msp432p401x.aem4f : PWMTimerMSP432.oem4f (.text:PWMTimerMSP432_close)
                  0000f0bc    00000088     ConnService.obj (.text:_ZN13TinyGsmSim80017modemGetConnectedEh)
                  0000f144    00000004     ti.uia.loggers.aem4f : LoggerStopMode.oem4f (.text:ti_uia_loggers_LoggerStopMode_getPriority__E)
                  0000f148    00000088     sysbios.aem4f : BIOS.obj (.text:ti_sysbios_family_arm_msp432_Timer_Module_startup__E)
                  0000f1d0    00000088                   : BIOS.obj (.text:ti_sysbios_knl_Mailbox_Module_startup__E)
                  0000f258    00000086     rtsv7M4_T_le_v4SPD16_eabi.lib : fd_cmp_t2.asm.obj (.text:__aeabi_cdcmple)
                  0000f2de    00000086                                   : fd_cmp_t2.asm.obj (.text:__aeabi_cdrcmple)
                  0000f364    00000084     msp432p4xx_driverlib.lib : pcm.o (.text:PCM_gotoLPM3)
                  0000f3e8    00000084     drivers_msp432p401x.aem4f : PWMTimerMSP432.oem4f (.text:PWMTimerMSP432_start)
                  0000f46c    00000084                               : PowerMSP432.oem4f (.text:restartHFXT)
                  0000f4f0    00000084     sysbios.aem4f : BIOS.obj (.text:ti_sysbios_family_arm_m3_Hwi_postInit__I)
                  0000f574    00000004     ti.uia.loggers.aem4f : LoggerStopMode.oem4f (.text:ti_uia_loggers_LoggerStopMode_getTransferType__E)
                  0000f578    00000084     sysbios.aem4f : BIOS.obj (.text:xdc_runtime_Memory_alloc__E)
                  0000f5fc    00000080     msp432p4xx_driverlib.lib : sysctl.o (.text:SysCtl_getTLVInfo)
                  0000f67c    00000080     ConnService.obj (.text:_ZN13TinyGsmSim80021getRegistrationStatusEv)
                  0000f6fc    00000004     debug_pem4f.oem4f (.text:xdc_runtime_System_Module_GateProxy_enter__E)
                  0000f700    00000080     sysbios.aem4f : BIOS.obj (.text:ti_sysbios_family_arm_m3_TimestampProvider_get64__E)
                  0000f780    00000080                   : BIOS.obj (.text:ti_sysbios_family_arm_msp432_Timer_startup__E)
                  0000f800    0000007e     EnergiaCoreMSP432.lib : new.obj (.text)
                  0000f87e    00000002     --HOLE-- [fill = 0]
                  0000f880    0000007c     Utils.obj (.text:_Z12utilsOnResetv)
                  0000f8fc    0000007c     drivers_msp432p401x.aem4f : PWMTimerMSP432.oem4f (.text:setConstraints)
                  0000f978    0000007c     sysbios.aem4f : BIOS.obj (.text:xdc_runtime_Core_deleteObject__I)
                  0000f9f4    0000007a     ConnService.obj (.text:_ZN13TinyGsmSim8008maintainEv)
                  0000fa6e    0000007a     rtsv7M4_T_le_v4SPD16_eabi.lib : memset_t2.asm.obj (.text)
                  0000fae8    00000078     drivers_msp432p401x.aem4f : TimerMSP432.oem4f (.text:TimerMSP432_allocateTimerResource)
                  0000fb60    00000078     sysbios.aem4f : BIOS.obj (.text:xdc_runtime_Error_print__E)
                  0000fbd8    00000075                   : BIOS.obj (.text:xdc_runtime_System_formatNum__I)
                  0000fc4d    00000001     --HOLE-- [fill = 0]
                  0000fc4e    00000074     HttpClient.obj (.text:_ZN10HttpClient4readEv)
                  0000fcc2    00000002     --HOLE-- [fill = 0]
                  0000fcc4    00000074     ConnService.obj (.text:_ZN13TinyGsmSim80014gprsDisconnectEv)
                  0000fd38    00000074     sysbios.aem4f : BIOS.obj (.text:ti_sysbios_knl_Clock_start__E)
                  0000fdac    00000074     ti.uia.runtime.aem4f : QueueDescriptor.oem4f (.text:ti_uia_runtime_QueueDescriptor_addToList__E)
                  0000fe20    00000070     sysbios.aem4f : BIOS.obj (.text:ti_sysbios_heaps_HeapMem_initPrimary__I)
                  0000fe90    0000006e     ConnService.obj (.text:_ZN13TinyGsmSim80015streamSkipUntilEcm)
                  0000fefe    0000006e     rtsv7M4_T_le_v4SPD16_eabi.lib : _printfi.c.obj (.text:_mcpy)
                  0000ff6c    0000006e                                   : fd_tos_t2.asm.obj (.text)
                  0000ffda    0000006e                                   : ll_div_t2.asm.obj (.text)
                  00010048    0000006c     HttpClient.obj (.text:_ZN10HttpClientC1ER6ClientPKct)
                  000100b4    00000004     debug_pem4f.oem4f (.text:xdc_runtime_System_Module_GateProxy_leave__E)
                  000100b8    0000006c     sysbios.aem4f : BIOS.obj (.text:ti_sysbios_family_arm_msp432_Seconds_get__E)
                  00010124    00000004     --HOLE-- [fill = 0]
                  00010128    0000006c                   : BIOS.obj (.text:ti_sysbios_knl_Swi_restoreHwi__E)
                  00010194    0000006a     drivers_msp432p401x.aem4f : PWMTimerMSP432.oem4f (.text:perfChangeNotifyFxn)
                  000101fe    00000002     --HOLE-- [fill = 0]
                  00010200    00000069     HttpClient.obj (.text:_ZN10HttpClient15readHeaderValueEv)
                  00010269    00000003     --HOLE-- [fill = 0]
                  0001026c    00000068     drivers_msp432p401x.aem4f : GPIOMSP432.oem4f (.text:GPIO_hwiIntFxn)
                  000102d4    00000068                               : PowerMSP432.oem4f (.text:PowerMSP432_getFreqs)
                  0001033c    00000068     rtsv7M4_T_le_v4SPD16_eabi.lib : copy_decompress_lzss.c.obj (.text:decompress:lzss:__TI_decompress_lzss)
                  000103a4    00000068     drivers_msp432p401x.aem4f : PWMTimerMSP432.oem4f (.text:initHw)
                  0001040c    00000004     --HOLE-- [fill = 0]
                  00010410    00000068     sysbios.aem4f : BIOS.obj (.text:xdc_runtime_Error_setX__E)
                  00010478    00000068                   : BIOS.obj (.text:xdc_runtime_Text_visitRope2__I)
                  000104e0    00000066     ti.uia.loggers.aem4f : LoggerStopMode.oem4f (.text:ti_uia_loggers_LoggerStopMode_flush__E)
                  00010546    00000002     --HOLE-- [fill = 0]
                  00010548    00000064     ConnService.obj (.text:_ZN13TinyGsmSim8006sendATIJPKchcS2_S2_S2_S2_tEEEvDpT_)
                  000105ac    00000064     MainBoard.obj (.text:_ZN9MainBoard5powerEb)
                  00010610    00000064     rtsv7M4_T_le_v4SPD16_eabi.lib : s_frexp.c.obj (.text:frexp)
                  00010674    00000004     --HOLE-- [fill = 0]
                  00010678    00000064     sysbios.aem4f : BIOS.obj (.text:ti_sysbios_knl_Clock_logTick__E)
                  000106dc    00000004     --HOLE-- [fill = 0]
                  000106e0    00000064                   : BIOS.obj (.text:ti_sysbios_utils_Load_logCPULoad__I)
                  00010744    00000062     SerialTransfer.obj (.text:_ZN14SerialTransfer12unpackPacketEPhRKh)
                  000107a6    00000002     --HOLE-- [fill = 0]
                  000107a8    00000061     Utils.obj (.text:_Z11utilsGetUIDv)
                  00010809    00000003     --HOLE-- [fill = 0]
                  0001080c    00000060     drivers_msp432p401x.aem4f : GPIOMSP432.oem4f (.text:GPIO_setCallback)
                  0001086c    00000060     dpl_msp432p401x.aem4f : PowerMSP432_tirtos.oem4f (.text:PowerMSP432_deepSleepPolicy)
                  000108cc    00000060     TinyGPS++.obj (.text:_ZN15TinyGPSLocation3latEv)
                  0001092c    00000060     TinyGPS++.obj (.text:_ZN15TinyGPSLocation3lngEv)
                  0001098c    00000060     Airio.obj (.text:_ZN17SerialTransferCRC13generateTableEv)
                  000109ec    00000004     --HOLE-- [fill = 0]
                  000109f0    00000060     sysbios.aem4f : BIOS.obj (.text:ti_sysbios_family_arm_m3_TimestampProvider_get32__E)
                  00010a50    0000005f                   : BIOS.obj (.text:xdc_runtime_Text_putLab__E)
                  00010aaf    00000001     --HOLE-- [fill = 0]
                  00010ab0    0000005e     msp432p4xx_driverlib.lib : pcm.o (.text:PCM_getCoreVoltageLevel)
                  00010b0e    00000002     --HOLE-- [fill = 0]
                  00010b10    0000005c     sysbios.aem4f : BIOS.obj (.text:ti_sysbios_family_arm_m3_Timer_start__E)
                  00010b6c    00000004     --HOLE-- [fill = 0]
                  00010b70    0000005c                   : BIOS.obj (.text:ti_sysbios_knl_Swi_schedule__I)
                  00010bcc    00000004     --HOLE-- [fill = 0]
                  00010bd0    0000005c                   : BIOS.obj (.text:xdc_runtime_Startup_exec__E)
                  00010c2c    0000005a     msp432p4xx_driverlib.lib : pcm.o (.text:PCM_getPowerMode)
                  00010c86    0000005a     HttpClient.obj (.text:_ZN10HttpClient19skipResponseHeadersEv)
                  00010ce0    0000005a     drivers_msp432p401x.aem4f : ADCMSP432.oem4f (.text:initHw)
                  00010d3a    00000002     --HOLE-- [fill = 0]
                  00010d3c    00000059     HttpClient.obj (.text:_ZN10HttpClient15headerAvailableEv)
                  00010d95    00000003     --HOLE-- [fill = 0]
                  00010d98    00000058     drivers_msp432p401x.aem4f : GPIOMSP432.oem4f (.text:GPIO_write)
                  00010df0    00000058     rtsv7M4_T_le_v4SPD16_eabi.lib : hostwrite.c.obj (.text:HOSTwrite)
                  00010e48    00000058     Airio.obj (.text:_ZN14SerialTransferC1Ev)
                  00010ea0    00000058     boot.aem4f : boot.oem4f (.text)
                  00010ef8    00000058     drivers_msp432p401x.aem4f : UARTMSP432.oem4f (.text:readIsrBinaryBlocking)
                  00010f50    00000058     sysbios.aem4f : BIOS.obj (.text:ti_sysbios_family_arm_m3_Hwi_excReserved__I)
                  00010fa8    00000058                   : m3_Hwi_asm_switch.obj (.text:ti_sysbios_family_arm_m3_Hwi_initStacks__E)
                  00011000    00000058                   : BIOS.obj (.text:ti_sysbios_family_arm_m3_Timer_setPeriod__E)
                  00011058    00000058                   : BIOS.obj (.text:ti_sysbios_heaps_HeapMem_alloc__E)
                  000110b0    00000058                   : BIOS.obj (.text:xdc_runtime_Assert_raise__I)
                  00011108    00000056     rtsv7M4_T_le_v4SPD16_eabi.lib : _printfi.c.obj (.text:_pconv_f)
                  0001115e    00000002     --HOLE-- [fill = 0]
                  00011160    00000054     msp432p4xx_driverlib.lib : pcm.o (.text:PCM_shutdownDevice)
                  000111b4    00000054     drivers_msp432p401x.aem4f : TimerMSP432.oem4f (.text:TimerMSP432_freeTimerResource)
                  00011208    00000054     HttpClient.obj (.text:_ZN10HttpClient10resetStateEv)
                  0001125c    00000054     ConnService.obj (.text:_ZN13TinyGsmSim8006sendATIJPKcS2_S2_S2_S2_S2_S2_EEEvDpT_)
                  000112b0    00000054     Airio.obj (.text:_ZN17SerialTransferCRCC1ERKhS1_)
                  00011304    00000054     rtsv7M4_T_le_v4SPD16_eabi.lib : _ltoa.c.obj (.text:__TI_ltoa)
                  00011358    00000054     debug_pem4f.oem4f (.text:ti_sysbios_family_arm_m3_Hwi_create)
                  000113ac    00000004     --HOLE-- [fill = 0]
                  000113b0    00000054     sysbios.aem4f : BIOS.obj (.text:ti_sysbios_family_arm_msp432_Timer_initDevice__I)
                  00011404    00000053     HttpClient.obj (.text:_ZN10HttpClient10sendHeaderEPKcS1_)
                  00011457    00000001     --HOLE-- [fill = 0]
                  00011458    00000053     HttpClient.obj (.text:_ZN10HttpClient10sendHeaderEPKci)
                  000114ab    00000001     --HOLE-- [fill = 0]
                  000114ac    00000052     rtsv7M4_T_le_v4SPD16_eabi.lib : _printfi.c.obj (.text:_ecpy)
                  000114fe    00000002     --HOLE-- [fill = 0]
                  00011500    00000050     dpl_msp432p401x.aem4f : ClockP_tirtos.oem4f (.text:ClockP_create)
                  00011550    00000050     ConnService.obj (.text:_ZN13TinyGsmSim8006sendATIJPKchcjEEEvDpT_)
                  000115a0    00000050     ConnService.obj (.text:_ZN13TinyGsmSim8009GsmClient7connectEPKcti)
                  000115f0    00000050     SerialTransfer.obj (.text:_ZN17SerialTransferCRC9calculateEPhh)
                  00011640    00000050     sysbios.aem4f : BIOS.obj (.text:ti_sysbios_family_arm_m3_Hwi_Module_startup__E)
                  00011690    00000050     debug_pem4f.oem4f (.text:ti_sysbios_knl_Task_create)
                  000116e0    00000050     sysbios.aem4f : BIOS.obj (.text:xdc_runtime_SysMin_flush__E)
                  00011730    0000004c     rtsv7M4_T_le_v4SPD16_eabi.lib : atoi.c.obj (.text:atoi)
                  0001177c    0000004c                                   : atol.c.obj (.text:atol)
                  000117c8    0000004c                                   : cpy_tbl.c.obj (.text:copy_in)
                  00011814    0000004c     drivers_msp432p401x.aem4f : UARTMSP432.oem4f (.text:readIsrBinaryCallback)
                  00011860    0000004c     sysbios.aem4f : BIOS.obj (.text:ti_sysbios_family_arm_m3_Hwi_excSvCall__I)
                  000118ac    00000004     --HOLE-- [fill = 0]
                  000118b0    0000004c                   : BIOS.obj (.text:ti_sysbios_family_arm_msp432_Timer_setAvailMask__E)
                  000118fc    00000004     --HOLE-- [fill = 0]
                  00011900    0000004c                   : BIOS.obj (.text:ti_sysbios_family_arm_msp432_Timer_start__E)
                  0001194c    00000004     --HOLE-- [fill = 0]
                  00011950    0000004c                   : BIOS.obj (.text:ti_sysbios_heaps_HeapMem_getStats__E)
                  0001199c    00000004     --HOLE-- [fill = 0]
                  000119a0    0000004c                   : BIOS.obj (.text:ti_sysbios_knl_Swi_runLoop__I)
                  000119ec    00000004     --HOLE-- [fill = 0]
                  000119f0    0000004c                   : BIOS.obj (.text:ti_sysbios_knl_Task_allBlockedFunction__I)
                  00011a3c    0000004c     ti.uia.loggers.aem4f : LoggerStopMode.oem4f (.text:ti_uia_loggers_LoggerStopMode_Module_startup__E)
                  00011a88    0000004c     sysbios.aem4f : BIOS.obj (.text:xdc_runtime_Text_xprintf__I)
                  00011ad4    0000004a     ConnService.obj (.text:_ZN13TinyGsmSim8009GsmClient9availableEv)
                  00011b1e    00000002     --HOLE-- [fill = 0]
                  00011b20    00000048     drivers_msp432p401x.aem4f : PowerMSP432.oem4f (.text:Power_releaseConstraint)
                  00011b68    00000048     HttpClient.obj (.text:_ZN10HttpClient4readEPhj)
                  00011bb0    00000048     ConnService.obj (.text:_ZN13TinyGsmSim8006sendATIJPKcS2_cEEEvDpT_)
                  00011bf8    00000048     ConnService.obj (.text:_ZN13TinyGsmSim8006sendATIJPKchS2_EEEvDpT_)
                  00011c40    00000048     ConnService.obj (.text:_ZN13TinyGsmSim8009GsmClient4initEPS_h)
                  00011c88    00000048     rtsv7M4_T_le_v4SPD16_eabi.lib : exit.c.obj (.text:exit)
                  00011cd0    00000048                                   : fd_toi_t2.asm.obj (.text)
                  00011d18    00000048     sysbios.aem4f : BIOS.obj (.text:ti_sysbios_family_arm_m3_Hwi_disableInterrupt__E)
                  00011d60    00000048                   : BIOS.obj (.text:ti_sysbios_family_arm_m3_Hwi_enableInterrupt__E)
                  00011da8    00000048                   : BIOS.obj (.text:ti_sysbios_family_arm_m3_Hwi_excNoIsr__I)
                  00011df0    00000048                   : BIOS.obj (.text:ti_sysbios_family_arm_m3_Timer_initDevice__I)
                  00011e38    00000048                   : BIOS.obj (.text:xdc_runtime_Core_assignParams__I)
                  00011e80    00000046     drivers_msp432p401x.aem4f : RingBuf.oem4f (.text:RingBuf_put)
                  00011ec6    00000046     ConnService.obj (.text:_ZN13TinyGsmSim80011streamWriteIPKcJS2_hcS2_S2_S2_S2_tS2_EEEvT_DpT0_)
                  00011f0c    00000046     ConnService.obj (.text:_ZN13TinyGsmSim80011streamWriteIPKcJhcS2_S2_S2_S2_tS2_EEEvT_DpT0_)
                  00011f52    00000002     --HOLE-- [fill = 0]
                  00011f54    00000045     ConnService.obj (.text:_ZN13TinyGsmSim80012waitResponseEjPKcS1_S1_S1_S1_)
                  00011f99    00000003     --HOLE-- [fill = 0]
                  00011f9c    00000044     drivers_msp432p401x.aem4f : PWM.oem4f (.text:PWM_init)
                  00011fe0    00000044                               : UART.oem4f (.text:UART_init)
                  00012024    00000044                               : Watchdog.oem4f (.text:Watchdog_init)
                  00012068    00000044     rtsv7M4_T_le_v4SPD16_eabi.lib : dtor_list.c.obj (.text:_Z25__add_destruction_to_listPP20a_needed_destructionPFYvPvES2_S2_)
                  000120ac    00000044     TinyGPS++.obj (.text:_ZN11TinyGPSPlus7fromHexEc)
                  000120f0    00000044     ConnService.obj (.text:_ZN11TinyGsmFifoIhLj64EE3putERKh)
                  00012134    00000044     ConnService.obj (.text:_ZN13TinyGsmSim80011streamWriteIhJcPKcS2_S2_S2_tS2_EEEvT_DpT0_)
                  00012178    00000044     ConnService.obj (.text:_ZN13TinyGsmSim8006sendATIJPKcbEEEvDpT_)
                  000121bc    00000044     ConnService.obj (.text:_ZN13TinyGsmSim8006sendATIJPKchEEEvDpT_)
                  00012200    00000044     rtsv7M4_T_le_v4SPD16_eabi.lib : fd_tou_t2.asm.obj (.text)
                  00012244    00000004     --HOLE-- [fill = 0]
                  00012248    00000044     sysbios.aem4f : BIOS.obj (.text:ti_sysbios_family_arm_m3_Hwi_excNmi__I)
                  0001228c    00000004     --HOLE-- [fill = 0]
                  00012290    00000044                   : BIOS.obj (.text:ti_sysbios_family_arm_m3_Hwi_getStackInfo__E)
                  000122d4    00000044     ti.uia.loggers.aem4f : LoggerStopMode.oem4f (.text:ti_uia_loggers_LoggerStopMode_initBuffer__I)
                  00012318    00000044     sysbios.aem4f : BIOS.obj (.text:xdc_runtime_SysMin_putch__E)
                  0001235c    00000004     --HOLE-- [fill = 0]
                  00012360    00000044                   : BIOS.obj (.text:xdc_runtime_System_atexit__E)
                  000123a4    00000042     rtsv7M4_T_le_v4SPD16_eabi.lib : dtor_list.c.obj (.text:_Z23__finalize_destructionsPP20a_needed_destructionPv)
                  000123e6    00000002     --HOLE-- [fill = 0]
                  000123e8    00000040     drivers_msp432p401x.aem4f : ADCMSP432.oem4f (.text:ADCMSP432_close)
                  00012428    00000040     dpl_msp432p401x.aem4f : HwiP_tirtos.oem4f (.text:HwiP_create)
                  00012468    00000040     drivers_msp432p401x.aem4f : PWM.oem4f (.text:PWM_open)
                  000124a8    00000040                               : RingBuf.oem4f (.text:RingBuf_get)
                  000124e8    00000040                               : UARTMSP432.oem4f (.text:UARTMSP432_read)
                  00012528    00000040                               : UART.oem4f (.text:UART_open)
                  00012568    00000040                               : PWMTimerMSP432.oem4f (.text:getDutyCounts)
                  000125a8    00000040                               : PWMTimerMSP432.oem4f (.text:getPeriodCounts)
                  000125e8    00000040                               : UARTMSP432.oem4f (.text:perfChangeNotifyFxn)
                  00012628    00000040     rtsv7M4_T_le_v4SPD16_eabi.lib : u_divt2.asm.obj (.text)
                  00012668    00000040                                   : sprintf.c.obj (.text:sprintf)
                  000126a8    0000003e                                   : _printfi.c.obj (.text:_fcpy)
                  000126e6    0000003e     debug_pem4f.oem4f (.text:realloc)
                  00012724    0000003c     dpl_msp432p401x.aem4f : SemaphoreP_tirtos.oem4f (.text:SemaphoreP_create)
                  00012760    0000003c     ConnService.obj (.text:_ZN13TinyGsmSim80011streamWriteIPKcJS2_S2_S2_S2_S2_S2_S2_S2_EEEvT_DpT0_)
                  0001279c    00000004     --HOLE-- [fill = 0]
                  000127a0    0000003c     sysbios.aem4f : BIOS.obj (.text:ti_sysbios_family_arm_m3_Hwi_Instance_finalize__E)
                  000127dc    00000004     --HOLE-- [fill = 0]
                  000127e0    0000003c                   : BIOS.obj (.text:ti_sysbios_family_arm_msp432_Seconds_Module_startup__E)
                  0001281c    0000003c     debug_pem4f.oem4f (.text:ti_sysbios_knl_Clock_create)
                  00012858    0000003c     sysbios.aem4f : BIOS.obj (.text:ti_sysbios_knl_Swi_restore__E)
                  00012894    00000004     --HOLE-- [fill = 0]
                  00012898    0000003c                   : BIOS.obj (.text:xdc_runtime_System_processAtExit__E)
                  000128d4    0000003a     ConnService.obj (.text:_ZN13TinyGsmSim80011streamWriteIcJPKcS2_S2_S2_tS2_EEEvT_DpT0_)
                  0001290e    00000002     --HOLE-- [fill = 0]
                  00012910    00000038     drivers_msp432p401x.aem4f : PowerMSP432.oem4f (.text:Power_setConstraint)
                  00012948    00000038                               : WatchdogMSP432.oem4f (.text:WatchdogMSP432_close)
                  00012980    00000038     ConnService.obj (.text:_ZN11ConnService15modemSerialStopEv)
                  000129b8    00000038     ConnService.obj (.text:_ZN13TinyGsmSim80011streamWriteIPKcJS2_S2_S2_S2_S2_S2_S2_EEEvT_DpT0_)
                  000129f0    00000038     rtsv7M4_T_le_v4SPD16_eabi.lib : trgmsg.c.obj (.text:__TI_writemsg)
                  00012a28    00000038     Airio.obj (.text:__sti___9_Airio_cpp_gps)
                  00012a60    00000038     drivers_msp432p401x.aem4f : PowerMSP432.oem4f (.text:notify)
                  00012a98    00000038     rtsv7M4_T_le_v4SPD16_eabi.lib : fs_tod_t2.asm.obj (.text)
                  00012ad0    00000038     sysbios.aem4f : BIOS.obj (.text:ti_sysbios_knl_Task_processVitalTaskFlag__I)
                  00012b08    00000038                   : BIOS.obj (.text:xdc_runtime_SysMin_abort__E)
                  00012b40    00000036     ConnService.obj (.text:_ZN13TinyGsmSim80011streamWriteIPKcJS2_hcjS2_EEEvT_DpT0_)
                  00012b76    00000036     rtsv7M4_T_le_v4SPD16_eabi.lib : strncpy.c.obj (.text:strncpy)
                  00012bac    00000035     HttpClient.obj (.text:_ZN10HttpClient14readHeaderNameEv)
                  00012be1    00000001     --HOLE-- [fill = 0]
                  00012be2    00000034     Utils.obj (.text:_Z15utilsGetRandnumPhj)
                  00012c16    00000002     --HOLE-- [fill = 0]
                  00012c18    00000034     ConnService.obj (.text:_ZN11ConnService16modemSerialStartEv)
                  00012c4c    00000034     ConnService.obj (.text:_ZN13TinyGsmSim80011streamWriteIPKcJS2_S2_S2_S2_S2_S2_EEEvT_DpT0_)
                  00012c80    00000034     ConnService.obj (.text:_ZN13TinyGsmSim80011streamWriteIPKcJhcjS2_EEEvT_DpT0_)
                  00012cb4    00000034     ConnService.obj (.text:_ZN13TinyGsmSim8006sendATIJPKcEEEvDpT_)
                  00012ce8    00000034     ConnService.obj (.text:_ZN13TinyGsmSim8009GsmClientC1ERS_h)
                  00012d1c    00000034     TinyGPS++.obj (.text:_ZN15TinyGPSLocation6commitEv)
                  00012d50    00000034     TinyGPS++.obj (.text:_ZN15TinyGPSLocationC1Ev)
                  00012d84    00000034     rtsv7M4_T_le_v4SPD16_eabi.lib : trgmsg.c.obj (.text:__TI_readmsg)
                  00012db8    00000034                                   : dtor_list.c.obj (.text:__aeabi_atexit)
                  00012dec    00000004     --HOLE-- [fill = 0]
                  00012df0    00000034     sysbios.aem4f : BIOS.obj (.text:_pthread_delete$50)
                  00012e24    00000034     rtsv7M4_T_le_v4SPD16_eabi.lib : strstr.c.obj (.text:strstr)
                  00012e58    00000034     debug_pem4f.oem4f (.text:ti_sysbios_BIOS_startFunc__I)
                  00012e8c    00000004     --HOLE-- [fill = 0]
                  00012e90    00000034     sysbios.aem4f : BIOS.obj (.text:ti_sysbios_family_arm_m3_Timer_Module_startup__E)
                  00012ec4    00000004     --HOLE-- [fill = 0]
                  00012ec8    00000034                   : BIOS.obj (.text:ti_sysbios_family_arm_m3_Timer_periodicStub__I)
                  00012efc    00000004     --HOLE-- [fill = 0]
                  00012f00    00000034                   : BIOS.obj (.text:ti_sysbios_hal_Hwi_checkStack)
                  00012f34    00000034     debug_pem4f.oem4f (.text:ti_sysbios_knl_Semaphore_create)
                  00012f68    00000034     ti.uia.loggers.aem4f : LoggerStopMode.oem4f (.text:ti_uia_loggers_LoggerStopMode_reset__E)
                  00012f9c    00000032     HttpClient.obj (.text:_ZN10HttpClient16endOfBodyReachedEv)
                  00012fce    00000032     HttpClient.obj (.text:_ZN10HttpClient7connectE9IPAddresst)
                  00013000    00000032     ConnService.obj (.text:_ZN13TinyGsmSim80011streamWriteIPKcJS2_S2_S2_tS2_EEEvT_DpT0_)
                  00013032    00000032     ConnService.obj (.text:_ZN13TinyGsmSim80014waitForNetworkEm)
                  00013064    00000004     --HOLE-- [fill = 0]
                  00013068    00000032     sysbios.aem4f : BIOS.obj (.text:ti_sysbios_hal_Hwi_initStack)
                  0001309a    00000006     drivers_msp432p401x.aem4f : WatchdogMSP432.oem4f (.text:WatchdogMSP432_setReload)
                  000130a0    00000032     sysbios.aem4f : BIOS.obj (.text:ti_sysbios_knl_Semaphore_pendTimeout__I)
                  000130d2    00000002     --HOLE-- [fill = 0]
                  000130d4    00000030     drivers_msp432p401x.aem4f : ADCMSP432.oem4f (.text:ADCMSP432_init)
                  00013104    00000030     Airio.obj (.text:_Z3powIihENSt3__216__lazy_enable_ifIXaasr3std3__213is_arithmeticIT_EE5valuesr3std3__213is_arithmeticIT0_EE5valueENS0_9__promoteIS2_S3_vEEE4typeES2_S3_)
                  00013134    00000030     ConnService.obj (.text:_ZN11ConnServiceC1EPFbvE)
                  00013164    00000030     ConnService.obj (.text:_ZN13TinyGsmSim80011streamWriteIPKcJS2_S2_S2_S2_S2_EEEvT_DpT0_)
                  00013194    00000030     ConnService.obj (.text:_ZN13TinyGsmSim80011streamWriteIPKcJS2_hS2_S2_EEEvT_DpT0_)
                  000131c4    00000030     drivers_msp432p401x.aem4f : PWMTimerMSP432.oem4f (.text:mapPin)
                  000131f4    00000030                               : UARTMSP432.oem4f (.text:mapPin)
                  00013224    00000030     debug_pem4f.oem4f (.text:ti_sysbios_BIOS_atExitFunc__I)
                  00013254    00000004     --HOLE-- [fill = 0]
                  00013258    00000030     sysbios.aem4f : BIOS.obj (.text:ti_sysbios_family_arm_m3_TaskSupport_start__E)
                  00013288    00000030     debug_pem4f.oem4f (.text:ti_sysbios_gates_GateHwi_Object__create__S)
                  000132b8    00000030     debug_pem4f.oem4f (.text:ti_sysbios_gates_GateMutex_Object__create__S)
                  000132e8    00000030     debug_pem4f.oem4f (.text:ti_sysbios_heaps_HeapMem_Object__create__S)
                  00013318    00000030     sysbios.aem4f : BIOS.obj (.text:ti_sysbios_heaps_HeapMem_free__E)
                  00013348    00000030     debug_pem4f.oem4f (.text:ti_sysbios_heaps_HeapTrack_Object__create__S)
                  00013378    00000030     sysbios.aem4f : BIOS.obj (.text:ti_sysbios_heaps_HeapTrack_getStats__E)
                  000133a8    00000030     debug_pem4f.oem4f (.text:ti_sysbios_knl_Semaphore_construct)
                  000133d8    00000030     sysbios.aem4f : BIOS.obj (.text:ti_sysbios_knl_Task_restore__E)
                  00013408    00000030                   : BIOS.obj (.text:ti_sysbios_utils_Load_updateCurrentThreadTime__E)
                  00013438    00000030     debug_pem4f.oem4f (.text:ti_uia_loggers_LoggerStopMode_Object__create__S)
                  00013468    00000030     debug_pem4f.oem4f (.text:xdc_runtime_Error_policyLog__I)
                  00013498    0000002f     sysbios.aem4f : BIOS.obj (.text:xdc_runtime_Text_printVisFxn__I)
                  000134c7    00000001     --HOLE-- [fill = 0]
                  000134c8    0000002e     HttpClient.obj (.text:_ZN10HttpClient19endOfHeadersReachedEv)
                  000134f6    0000002e     HttpClient.obj (.text:_ZN10HttpClient5writeEPKhj)
                  00013524    0000002e     ConnService.obj (.text:_ZN13TinyGsmSim80011streamWriteIPKcJS2_S2_cS2_EEEvT_DpT0_)
                  00013552    0000002e     ConnService.obj (.text:_ZN13TinyGsmSim80011streamWriteIPKcJS2_S2_tS2_EEEvT_DpT0_)
                  00013580    0000002e     ConnService.obj (.text:_ZN13TinyGsmSim8009GsmClient7connectE9IPAddresst)
                  000135ae    0000002e     rtsv7M4_T_le_v4SPD16_eabi.lib : i_tofd_t2.asm.obj (.text)
                  000135dc    0000002e     debug_pem4f.oem4f (.text:ti_sysbios_rts_MemAlloc_alloc)
                  0001360a    00000002     --HOLE-- [fill = 0]
                  0001360c    0000002d     HttpClient.obj (.text:_ZN10HttpClient4postEPKcS1_iPKh)
                  00013639    00000001     --HOLE-- [fill = 0]
                  0001363a    0000002c     dpl_msp432p401x.aem4f : PowerMSP432_tirtos.oem4f (.text:PowerMSP432_updateFreqs)
                  00013666    00000002     --HOLE-- [fill = 0]
                  00013668    0000002c     msp432p4xx_driverlib.lib : rtc_c.o (.text:RTC_C_holdClock)
                  00013694    0000002c     dpl_msp432p401x.aem4f : SemaphoreP_tirtos.oem4f (.text:SemaphoreP_createBinary)
                  000136c0    0000002c     HttpClient.obj (.text:_ZN10HttpClient13flushClientRxEv)
                  000136ec    0000002c     HttpClient.obj (.text:_ZN10HttpClient5writeEh)
                  00013718    0000002c     ConnService.obj (.text:_ZN13TinyGsmSim80011streamWriteIPKcJS2_S2_S2_S2_EEEvT_DpT0_)
                  00013744    0000002c     ConnService.obj (.text:_ZN13TinyGsmSim80011streamWriteIPKcJS2_bS2_EEEvT_DpT0_)
                  00013770    0000002c     ConnService.obj (.text:_ZN13TinyGsmSim80011streamWriteIPKcJS2_cS2_EEEvT_DpT0_)
                  0001379c    0000002c     ConnService.obj (.text:_ZN13TinyGsmSim80011streamWriteIPKcJS2_hS2_EEEvT_DpT0_)
                  000137c8    0000002c     ConnService.obj (.text:_ZN13TinyGsmSim80011streamWriteIPKcJS2_tS2_EEEvT_DpT0_)
                  000137f4    0000002c     ConnService.obj (.text:_ZN13TinyGsmSim80011streamWriteIPKcJhS2_S2_EEEvT_DpT0_)
                  00013820    0000002c     ConnService.obj (.text:_ZN13TinyGsmSim80011streamWriteIhJPKcS2_EEEvT_DpT0_)
                  0001384c    0000002c     ConnService.obj (.text:_ZN13TinyGsmSim80011streamWriteIhJcjPKcEEEvT_DpT0_)
                  00013878    0000002c     ConnService.obj (.text:_ZN13TinyGsmSim80012waitResponseEPKcS1_S1_S1_S1_)
                  000138a4    00000004     --HOLE-- [fill = 0]
                  000138a8    0000002c     sysbios.aem4f : BIOS.obj (.text:_pthread_cleanupFxn)
                  000138d4    0000002c     rtsv7M4_T_le_v4SPD16_eabi.lib : strncmp.c.obj (.text:strncmp)
                  00013900    0000002c     debug_pem4f.oem4f (.text:ti_sysbios_family_arm_m3_Hwi_Handle__label__S)
                  0001392c    00000004     --HOLE-- [fill = 0]
                  00013930    0000002c     sysbios.aem4f : BIOS.obj (.text:ti_sysbios_family_arm_m3_TimestampProvider_Module_startup__E)
                  0001395c    00000004     --HOLE-- [fill = 0]
                  00013960    0000002c                   : BIOS.obj (.text:ti_sysbios_family_arm_msp432_Timer_stop__E)
                  0001398c    0000002c     debug_pem4f.oem4f (.text:ti_sysbios_gates_GateHwi_Handle__label__S)
                  000139b8    0000002c     debug_pem4f.oem4f (.text:ti_sysbios_gates_GateMutex_Handle__label__S)
                  000139e4    0000002c     debug_pem4f.oem4f (.text:ti_sysbios_gates_GateMutex_construct)
                  00013a10    0000002c     debug_pem4f.oem4f (.text:ti_sysbios_heaps_HeapMem_Handle__label__S)
                  00013a3c    0000002c     debug_pem4f.oem4f (.text:ti_sysbios_heaps_HeapTrack_Handle__label__S)
                  00013a68    0000002c     debug_pem4f.oem4f (.text:ti_sysbios_knl_Clock_doTick__I)
                  00013a94    0000002c     debug_pem4f.oem4f (.text:ti_sysbios_knl_Queue_construct)
                  00013ac0    0000002c     debug_pem4f.oem4f (.text:ti_sysbios_knl_Swi_Handle__label__S)
                  00013aec    0000002c     debug_pem4f.oem4f (.text:ti_sysbios_knl_Task_Handle__label__S)
                  00013b18    0000002c     debug_pem4f.oem4f (.text:ti_uia_loggers_LoggerStopMode_Handle__label__S)
                  00013b44    0000002a     ConnService.obj (.text:_ZN13TinyGsmSim80011streamWriteIPKcJbS2_EEEvT_DpT0_)
                  00013b6e    0000002a     ConnService.obj (.text:_ZN13TinyGsmSim80011streamWriteIPKcJcS2_EEEvT_DpT0_)
                  00013b98    0000002a     ConnService.obj (.text:_ZN13TinyGsmSim80011streamWriteIPKcJhS2_EEEvT_DpT0_)
                  00013bc2    0000002a     ConnService.obj (.text:_ZN13TinyGsmSim80011streamWriteIPKcJtS2_EEEvT_DpT0_)
                  00013bec    0000002a     ConnService.obj (.text:_ZN13TinyGsmSim80011streamWriteIcJjPKcEEEvT_DpT0_)
                  00013c16    00000002     --HOLE-- [fill = 0]
                  00013c18    00000028     msp432p4xx_driverlib.lib : adc14.o (.text:ADC14_getResult)
                  00013c40    00000028                              : pcm.o (.text:PCM_gotoLPM0)
                  00013c68    00000028     drivers_msp432p401x.aem4f : PowerMSP432.oem4f (.text:Power_registerNotify)
                  00013c90    00000028     HttpClient.obj (.text:_ZN10HttpClient3getEPKc)
                  00013cb8    00000028     ConnService.obj (.text:_ZN13TinyGsmSim80011streamWriteIPKcJS2_S2_S2_EEEvT_DpT0_)
                  00013ce0    00000028     ConnService.obj (.text:_ZN13TinyGsmSim8009GsmClient5writeEPKc)
                  00013d08    00000028     ConnService.obj (.text:_ZN13TinyGsmSim8009GsmClient5writeEPKhj)
                  00013d30    00000028     ConnService.obj (.text:_ZN9IPAddressC1ERKS_)
                  00013d58    00000028     drivers_msp432p401x.aem4f : PowerMSP432.oem4f (.text:disableFaultCounter)
                  00013d80    00000028                               : PowerMSP432.oem4f (.text:disableHFXT)
                  00013da8    00000028                               : UARTMSP432.oem4f (.text:findBaudDividerIndex)
                  00013dd0    00000028     rtsv7M4_T_le_v4SPD16_eabi.lib : memmov.c.obj (.text:memmove)
                  00013df8    00000028     sysbios.aem4f : m3_Hwi_asm.obj (.text:ti_sysbios_family_arm_m3_Hwi_excHandlerAsm__I)
                  00013e20    00000028                   : BIOS.obj (.text:ti_sysbios_knl_Swi_Module_startup__E)
                  00013e48    00000028                   : BIOS.obj (.text:xdc_runtime_System_aprintf_va__F)
                  00013e70    00000026     drivers_msp432p401x.aem4f : List.oem4f (.text:List_put)
                  00013e96    00000026                               : List.oem4f (.text:List_remove)
                  00013ebc    00000026     ConnService.obj (.text:_ZN11TinyGsmFifoIhLj64EE4freeEv)
                  00013ee2    00000026     TinyGPS++.obj (.text:_ZN13TinyGPSCustom6commitEv)
                  00013f08    00000026     ConnService.obj (.text:_ZN13TinyGsmSim80011streamWriteIPKcJS2_S2_EEEvT_DpT0_)
                  00013f2e    00000026     drivers_msp432p401x.aem4f : PWMTimerMSP432.oem4f (.text:releaseConstraints)
                  00013f54    00000026     sysbios.aem4f : m3_Hwi_asm.obj (.text:ti_sysbios_family_arm_m3_Hwi_pendSV__I)
                  00013f7a    00000006     rtsv7M4_T_le_v4SPD16_eabi.lib : dtor_list.c.obj (.text:__cxa_ia64_exit)
                  00013f80    00000026     sysbios.aem4f : BIOS.obj (.text:xdc_runtime_System_printf_va__F)
                  00013fa6    00000002     --HOLE-- [fill = 0]
                  00013fa8    00000024     msp432p4xx_driverlib.lib : wdt_a.o (.text:WDT_A_holdTimer)
                  00013fcc    00000024     ConnService.obj (.text:_ZN11TinyGsmFifoIhLj64EE4sizeEv)
                  00013ff0    00000024     ConnService.obj (.text:_ZN13TinyGsmSim80018isNetworkConnectedEv)
                  00014014    00000024     ConnService.obj (.text:_ZN13TinyGsmSim8009GsmClient4readEv)
                  00014038    00000024     Airio.obj (.text:_ZN15TinyGPSAltitude6metersEv)
                  0001405c    00000024     ConnService.obj (.text:__sti___15_ConnService_cpp_3cccaf97)
                  00014080    00000024     rtsv7M4_T_le_v4SPD16_eabi.lib : memcmp.c.obj (.text:memcmp)
                  000140a4    00000024     debug_pem4f.oem4f (.text:ti_sysbios_BIOS_errorRaiseHook__I)
                  000140c8    00000024     debug_pem4f.oem4f (.text:ti_sysbios_BIOS_registerRTSLock__I)
                  000140ec    00000024     debug_pem4f.oem4f (.text:ti_sysbios_BIOS_removeRTSLock__I)
                  00014110    00000024     sysbios.aem4f : BIOS.obj (.text:ti_sysbios_family_arm_m3_Timer_startup__E)
                  00014134    00000004     --HOLE-- [fill = 0]
                  00014138    00000024                   : BIOS.obj (.text:ti_sysbios_family_arm_msp432_ClockFreqs_setFrequency__E)
                  0001415c    00000024     debug_pem4f.oem4f (.text:ti_sysbios_gates_GateMutex_Object__delete__S)
                  00014180    00000024     sysbios.aem4f : BIOS.obj (.text:ti_sysbios_heaps_HeapTrack_Instance_init__E)
                  000141a4    00000024     debug_pem4f.oem4f (.text:ti_sysbios_heaps_HeapTrack_Object__delete__S)
                  000141c8    00000024     sysbios.aem4f : BIOS.obj (.text:ti_sysbios_knl_Clock_Module_startup__E)
                  000141ec    00000024     debug_pem4f.oem4f (.text:ti_sysbios_knl_Clock_Object__delete__S)
                  00014210    00000024     debug_pem4f.oem4f (.text:ti_sysbios_knl_Semaphore_Object__delete__S)
                  00014234    00000004     --HOLE-- [fill = 0]
                  00014238    00000024     sysbios.aem4f : BIOS.obj (.text:ti_sysbios_knl_Task_restoreHwi__E)
                  0001425c    00000022     HttpClient.obj (.text:_ZN10HttpClient7connectEPKct)
                  0001427e    00000022     ConnService.obj (.text:_ZN13TinyGsmSim80011streamWriteIbJPKcEEEvT_DpT0_)
                  000142a0    00000022     ConnService.obj (.text:_ZN13TinyGsmSim80011streamWriteIhJPKcEEEvT_DpT0_)
                  000142c2    00000022     ConnService.obj (.text:_ZN13TinyGsmSim80011streamWriteItJPKcEEEvT_DpT0_)
                  000142e4    00000022     ConnService.obj (.text:_ZN13TinyGsmSim8009GsmClient7connectEPKct)
                  00014306    00000022     debug_pem4f.oem4f (.text:xdc_runtime_SysMin_output__I)
                  00014328    00000020     msp432p4xx_driverlib.lib : cs.o (.text:CS_setExternalClockSourceFrequency)
                  00014348    00000020     drivers_msp432p401x.aem4f : GPIOMSP432.oem4f (.text:GPIO_read)
                  00014368    00000020                               : PowerMSP432.oem4f (.text:Power_unregisterNotify)
                  00014388    00000020                               : RingBuf.oem4f (.text:RingBuf_peek)
                  000143a8    00000020     ConnService.obj (.text:_ZN11ConnService11modemTurnOnEv)
                  000143c8    00000020     TinyGPS++.obj (.text:_ZN11TinyGPSDate6commitEv)
                  000143e8    00000020     TinyGPS++.obj (.text:_ZN11TinyGPSTime6commitEv)
                  00014408    00000020     ConnService.obj (.text:_ZN13TinyGsmSim80011streamWriteIcJPKcEEEvT_DpT0_)
                  00014428    00000020     TinyGPS++.obj (.text:_ZN14TinyGPSDecimal6commitEv)
                  00014448    00000020     TinyGPS++.obj (.text:_ZN14TinyGPSInteger6commitEv)
                  00014468    00000020     ConnService.obj (.text:_ZN6StreamC1Ev)
                  00014488    00000020     rtsv7M4_T_le_v4SPD16_eabi.lib : u_tofd_t2.asm.obj (.text)
                  000144a8    00000020     debug_pem4f.oem4f (.text:ti_sysbios_BIOS_rtsLock__I)
                  000144c8    00000020     debug_pem4f.oem4f (.text:ti_sysbios_family_arm_m3_Hwi_Object__delete__S)
                  000144e8    00000020     debug_pem4f.oem4f (.text:ti_sysbios_gates_GateHwi_Object__delete__S)
                  00014508    00000020     debug_pem4f.oem4f (.text:ti_sysbios_heaps_HeapMem_Object__delete__S)
                  00014528    00000020     sysbios.aem4f : BIOS.obj (.text:ti_sysbios_knl_Idle_run__E)
                  00014548    00000020     debug_pem4f.oem4f (.text:ti_sysbios_knl_Semaphore_destruct)
                  00014568    00000020     debug_pem4f.oem4f (.text:ti_sysbios_knl_Task_Object__delete__S)
                  00014588    00000020     debug_pem4f.oem4f (.text:ti_uia_loggers_LoggerStopMode_Object__delete__S)
                  000145a8    00000020     sysbios.aem4f : BIOS.obj (.text:xdc_runtime_SysMin_Module_startup__E)
                  000145c8    0000001e     ConnService.obj (.text:_Z10TinyGsmMinIjERKT_S2_S2_)
                  000145e6    0000001e     ConnService.obj (.text:_Z10TinyGsmMinItERKT_S2_S2_)
                  00014604    0000001e     TinyGPS++.obj (.text:_ZN10RawDegreesC1Ev)
                  00014622    0000001e     TinyGPS++.obj (.text:_ZN11TinyGPSDateC1Ev)
                  00014640    0000001e     TinyGPS++.obj (.text:_ZN11TinyGPSTimeC1Ev)
                  0001465e    0000001e     ConnService.obj (.text:_ZN13TinyGsmSim80011streamWriteIjJPKcEEEvT_DpT0_)
                  0001467c    0000001e     TinyGPS++.obj (.text:_ZN14TinyGPSDecimalC1Ev)
                  0001469a    0000001e     TinyGPS++.obj (.text:_ZN14TinyGPSIntegerC1Ev)
                  000146b8    0000001e     EnergiaCoreMSP432.lib : Print.obj (.text:_ZN5Print5writeEPKc)
                  000146d6    0000001e     drivers_msp432p401x.aem4f : PWMTimerMSP432.oem4f (.text:corroboratePeriod)
                  000146f4    0000001e     sysbios.aem4f : m3_Hwi_asm_switch.obj (.text:ti_sysbios_family_xxx_Hwi_switchAndRunFunc)
                  00014712    00000002     --HOLE-- [fill = 0]
                  00014714    0000001c     Utils.obj (.text:_Z13utilsPrintUIDv)
                  00014730    0000001c     HttpClient.obj (.text:_ZN10HttpClient4stopEv)
                  0001474c    0000001c     ConnService.obj (.text:_ZN13TinyGsmSim80011streamWriteIPKcJS2_EEEvT_DpT0_)
                  00014768    0000001c     ConnService.obj (.text:_ZN13TinyGsmSim8009GsmClient9connectedEv)
                  00014784    0000001c     ConnService.obj (.text:_ZN13TinyGsmSim800C1ER6Stream)
                  000147a0    0000001c     ConnService.obj (.text:_ZN5PrintC1Ev)
                  000147bc    0000001c     EnergiaCoreMSP432.lib : WString.obj (.text:_ZN6String4initEv)
                  000147d8    0000001c     MainBoard.obj (.text:_ZN9MainBoard11sensorPowerEb)
                  000147f4    0000001c     rtsv7M4_T_le_v4SPD16_eabi.lib : memccpy.c.obj (.text:memccpy)
                  00014810    0000001c     sysbios.aem4f : BIOS.obj (.text:ti_sysbios_family_arm_m3_Hwi_excHandler__I)
                  0001482c    00000004     --HOLE-- [fill = 0]
                  00014830    0000001c                   : BIOS.obj (.text:ti_sysbios_gates_GateMutex_Instance_init__E)
                  0001484c    0000001c     debug_pem4f.oem4f (.text:ti_sysbios_knl_Queue_destruct)
                  00014868    0000001c     sysbios.aem4f : BIOS.obj (.text:ti_sysbios_knl_Queue_put__E)
                  00014884    00000004     --HOLE-- [fill = 0]
                  00014888    0000001c                   : BIOS.obj (.text:ti_sysbios_knl_Task_enter__I)
                  000148a4    0000001c     ti.uia.loggers.aem4f : LoggerStopMode.oem4f (.text:ti_uia_loggers_LoggerStopMode_Instance_init__E)
                  000148c0    0000001c     sysbios.aem4f : BIOS.obj (.text:xdc_runtime_Error_raiseX__E)
                  000148dc    00000004     --HOLE-- [fill = 0]
                  000148e0    0000001c                   : BIOS.obj (.text:xdc_runtime_SysMin_exit__E)
                  000148fc    0000001a     ConnService.obj (.text:_ZN13TinyGsmSim8009GsmClient5flushEv)
                  00014916    0000001a     ConnService.obj (.text:_ZN13TinyGsmSim8009GsmClient5writeEh)
                  00014930    0000001a     ConnService.obj (.text:_ZN13TinyGsmSim8009GsmClientcvbEv)
                  0001494a    0000001a     rtsv7M4_T_le_v4SPD16_eabi.lib : s_copysign.c.obj (.text:copysign)
                  00014964    0000001a     debug_pem4f.oem4f (.text:free)
                  0001497e    00000002     --HOLE-- [fill = 0]
                  00014980    0000001a     sysbios.aem4f : BIOS.obj (.text:ti_sysbios_knl_Task_sleepTimeout__I)
                  0001499a    0000001a     debug_pem4f.oem4f (.text:xdc_runtime_System_aprintf__E)
                  000149b4    0000001a     debug_pem4f.oem4f (.text:xdc_runtime_System_printf__E)
                  000149ce    00000002     --HOLE-- [fill = 0]
                  000149d0    00000019     HttpClient.obj (.text:_ZN10HttpClientC1ER6Client)
                  000149e9    00000003     --HOLE-- [fill = 0]
                  000149ec    00000018     debug_pem4f.oem4f (.text:.bootCodeSection:ti_sysbios_family_arm_msp432_init_Boot_init__I)
                  00014a04    00000018     msp432p4xx_driverlib.lib : sysctl_a.o (.text:SysCtl_A_disableNMISource)
                  00014a1c    00000018                              : sysctl_a.o (.text:SysCtl_A_enableNMISource)
                  00014a34    00000018     drivers_msp432p401x.aem4f : UART.oem4f (.text:UART_Params_init)
                  00014a4c    00000018     main.obj (.text:_Z8the_taskjj)
                  00014a64    00000018     HttpClient.obj (.text:_ZN10HttpClient13contentLengthEv)
                  00014a7c    00000018     ConnService.obj (.text:_ZN10HttpClientD1Ev)
                  00014a94    00000018     ConnService.obj (.text:_ZN11TinyGsmFifoIhLj64EE4_incEii)
                  00014aac    00000018     ConnService.obj (.text:_ZN6ClientC1Ev)
                  00014ac4    00000018     ConnService.obj (.text:_ZN9PrintableC1ERKS_)
                  00014adc    00000018     EnergiaCoreMSP432.lib : IPAddress.obj (.text:_ZN9PrintableC1Ev)
                  00014af4    00000018     HttpClient.obj (.text:_ZNK6String9substringEj)
                  00014b0c    00000018     rtsv7M4_T_le_v4SPD16_eabi.lib : args_main.c.obj (.text:_args_main)
                  00014b24    00000018                                   : sprintf.c.obj (.text:_outs)
                  00014b3c    00000018     drivers_msp432p401x.aem4f : PWMTimerMSP432.oem4f (.text:corroborateDuty)
                  00014b54    00000018     rtsv7M4_T_le_v4SPD16_eabi.lib : ll_mul_t2.asm.obj (.text)
                  00014b6c    00000018                                   : strcmp.c.obj (.text:strcmp)
                  00014b84    00000018                                   : strrchr.c.obj (.text:strrchr)
                  00014b9c    00000018     debug_pem4f.oem4f (.text:ti_sysbios_BIOS_rtsUnlock__I)
                  00014bb4    00000018     debug_pem4f.oem4f (.text:ti_sysbios_family_arm_m3_Hwi_Module__startupDone__F)
                  00014bcc    00000018     sysbios.aem4f : m3_TaskSupport_asm.obj (.text:ti_sysbios_family_arm_m3_TaskSupport_swap__E)
                  00014be4    00000018     debug_pem4f.oem4f (.text:ti_sysbios_family_arm_m3_Timer_Module__startupDone__F)
                  00014bfc    00000018     debug_pem4f.oem4f (.text:ti_sysbios_family_arm_msp432_Timer_Module__startupDone__F)
                  00014c14    00000004     --HOLE-- [fill = 0]
                  00014c18    00000018     sysbios.aem4f : BIOS.obj (.text:ti_sysbios_gates_GateMutex_leave__E)
                  00014c30    00000018     debug_pem4f.oem4f (.text:ti_sysbios_rts_ti_ReentSupport_getTlsAddr__I)
                  00014c48    00000018     sysbios.aem4f : BIOS.obj (.text:xdc_runtime_Error_init__E)
                  00014c60    00000018                   : BIOS.obj (.text:xdc_runtime_System_exit__E)
                  00014c78    00000016     HttpClient.obj (.text:_ZN10HttpClient13finishHeadersEv)
                  00014c8e    00000016     ConnService.obj (.text:_ZN10HttpClient13setServerPortEt)
                  00014ca4    00000016     HttpClient.obj (.text:_ZN10HttpClient4peekEv)
                  00014cba    00000016     HttpClient.obj (.text:_ZN10HttpClient5flushEv)
                  00014cd0    00000016     HttpClient.obj (.text:_ZN10HttpClient9connectedEv)
                  00014ce6    00000016     ConnService.obj (.text:_ZN11TinyGsmFifoIhLj64EE5clearEv)
                  00014cfc    00000016     main.obj (.text:_ZN29_INTERNAL_8_main_cpp_func_ptr31ti_sysbios_knl_Task_Params_initEP26ti_sysbios_knl_Task_Params)
                  00014d12    00000016     ConnService.obj (.text:_ZN6StringpLEc)
                  00014d28    00000016     ConnService.obj (.text:_ZN6StringpLEh)
                  00014d3e    00000016     MainBoard.obj (.text:_ZN9MainBoard12getGSMStatusEv)
                  00014d54    00000016     rtsv7M4_T_le_v4SPD16_eabi.lib : strchr.c.obj (.text:strchr)
                  00014d6a    00000016     debug_pem4f.oem4f (.text:ti_sysbios_BIOS_exitFunc__I)
                  00014d80    00000016     ti.uia.loggers.aem4f : LoggerStopMode.oem4f (.text:ti_uia_loggers_LoggerStopMode_disable__E)
                  00014d96    00000016                          : LoggerStopMode.oem4f (.text:ti_uia_loggers_LoggerStopMode_enable__E)
                  00014dac    00000014     msp432p4xx_driverlib.lib : pcm.o (.text:PCM_getPowerState)
                  00014dc0    00000014     drivers_msp432p401x.aem4f : PWM.oem4f (.text:PWM_Params_init)
                  00014dd4    00000014                               : PowerMSP432.oem4f (.text:Power_idleFunc)
                  00014de8    00000014     HttpClient.obj (.text:_Z18isHexadecimalDigiti)
                  00014dfc    00000014     HttpClient.obj (.text:_Z7isSpacei)
                  00014e10    00000014     HttpClient.obj (.text:_ZN10HttpClientcvbEv)
                  00014e24    00000014     ConnService.obj (.text:_ZN11ConnService9keepAliveEv)
                  00014e38    00000014     SerialTransfer.obj (.text:_ZN14SerialTransfer5beginER6Stream)
                  00014e4c    00000014     Airio.obj (.text:_ZN14TinyGPSDecimal5valueEv)
                  00014e60    00000014     ConnService.obj (.text:_ZN6Client10sslConnectE9IPAddresst)
                  00014e74    00000014     ConnService.obj (.text:_ZN6Client10sslConnectEPKct)
                  00014e88    00000014     ConnService.obj (.text:_ZN9IPAddressixEi)
                  00014e9c    00000014     drivers_msp432p401x.aem4f : UARTMSP432.oem4f (.text:clearTXCPTIFG)
                  00014eb0    00000014     rtsv7M4_T_le_v4SPD16_eabi.lib : strcpy.c.obj (.text:strcpy)
                  00014ec4    00000014                                   : strlen.c.obj (.text:strlen)
                  00014ed8    00000014     debug_pem4f.oem4f (.text:ti_sysbios_family_arm_m3_Hwi_Object__get__S)
                  00014eec    00000004     --HOLE-- [fill = 0]
                  00014ef0    00000014     sysbios.aem4f : BIOS.obj (.text:ti_sysbios_family_arm_m3_Hwi_switchFromBootStack__E)
                  00014f04    00000014     debug_pem4f.oem4f (.text:ti_sysbios_heaps_HeapMem_Object__get__S)
                  00014f18    00000014     sysbios.aem4f : BIOS.obj (.text:ti_sysbios_knl_Clock_tick__E)
                  00014f2c    00000014     debug_pem4f.oem4f (.text:ti_sysbios_knl_Swi_Object__get__S)
                  00014f40    00000012     drivers_msp432p401x.aem4f : RingBuf.oem4f (.text:RingBuf_construct)
                  00014f52    00000012     dpl_msp432p401x.aem4f : SemaphoreP_tirtos.oem4f (.text:SemaphoreP_pend)
                  00014f64    00000012     ConnService.obj (.text:_ZN10HttpClient13setServerNameEPKc)
                  00014f76    00000012     HttpClient.obj (.text:_ZN10HttpClient22setHttpResponseTimeoutEj)
                  00014f88    00000012     TinyGPS++.obj (.text:_ZN11TinyGPSDate7setDateEPKc)
                  00014f9a    00000012     TinyGPS++.obj (.text:_ZN11TinyGPSTime7setTimeEPKc)
                  00014fac    00000012     TinyGPS++.obj (.text:_ZN13TinyGPSCustom3setEPKc)
                  00014fbe    00000012     ConnService.obj (.text:_ZN13TinyGsmSim80011streamWriteIPKcEEvT_)
                  00014fd0    00000012     TinyGPS++.obj (.text:_ZN14TinyGPSDecimal3setEPKc)
                  00014fe2    00000012     TinyGPS++.obj (.text:_ZN14TinyGPSInteger3setEPKc)
                  00014ff4    00000012     ConnService.obj (.text:_ZN15StringSumHelperC1ERK6String)
                  00015006    00000012     TinyGPS++.obj (.text:_ZN15TinyGPSLocation11setLatitudeEPKc)
                  00015018    00000012     TinyGPS++.obj (.text:_ZN15TinyGPSLocation12setLongitudeEPKc)
                  0001502a    00000012     ConnService.obj (.text:_ZN6StringpLEPKc)
                  0001503c    00000012     ConnService.obj (.text:_ZN6StringpLERKS_)
                  0001504e    00000012     HttpClient.obj (.text:_ZN6StringpLEi)
                  00015060    00000012     sysbios.aem4f : BIOS.obj (.text:ti_sysbios_hal_Hwi_Module_startup__E)
                  00015072    00000012     rtsv7M4_T_le_v4SPD16_eabi.lib : wcslen.c.obj (.text:wcslen)
                  00015084    00000012     debug_pem4f.oem4f (.text:xdc_runtime_Startup_exec__I)
                  00015096    00000002     --HOLE-- [fill = 0]
                  00015098    00000010     msp432p4xx_driverlib.lib : adc14.o (.text:ADCIsConversionRunning)
                  000150a8    00000010     dpl_msp432p401x.aem4f : HwiP_tirtos.oem4f (.text:HwiP_Params_init)
                  000150b8    00000010     msp432p4xx_driverlib.lib : pcm.o (.text:PCM_gotoLPM4)
                  000150c8    00000010                              : pcm.o (.text:PCM_setPowerMode)
                  000150d8    00000010                              : pcm.o (.text:PCM_setPowerState)
                  000150e8    00000010     drivers_msp432p401x.aem4f : PowerMSP432.oem4f (.text:PowerMSP432_getNumPerfLevels)
                  000150f8    00000010     msp432p4xx_driverlib.lib : sysctl_a.o (.text:SysCtl_A_getNMISourceStatus)
                  00015108    00000010                              : sysctl.o (.text:SysCtl_getNMISourceStatus)
                  00015118    00000010     drivers_msp432p401x.aem4f : WatchdogMSP432.oem4f (.text:WatchdogMSP432_clear)
                  00015128    00000010     ConnService.obj (.text:_ZN11ConnServiceD1Ev)
                  00015138    00000010     ConnService.obj (.text:_ZN9PrintableC2ERKS_)
                  00015148    00000010     rtsv7M4_T_le_v4SPD16_eabi.lib : isdigit.c.obj (.text:isdigit)
                  00015158    00000010                                   : isspace.c.obj (.text:isspace)
                  00015168    00000010                                   : isxdigit.c.obj (.text:isxdigit)
                  00015178    00000010     drivers_msp432p401x.aem4f : UARTMSP432.oem4f (.text:readBlockingTimeout)
                  00015188    00000010     sysbios.aem4f : BIOS.obj (.text:ti_sysbios_BIOS_getCpuFreq__E)
                  00015198    00000010                   : BIOS.obj (.text:ti_sysbios_BIOS_setCpuFreq__E)
                  000151a8    00000010                   : BIOS.obj (.text:ti_sysbios_BIOS_setThreadType__E)
                  000151b8    00000010                   : BIOS.obj (.text:ti_sysbios_BIOS_start__E)
                  000151c8    00000010                   : m3_TaskSupport_asm.obj (.text:ti_sysbios_family_arm_m3_TaskSupport_glue)
                  000151d8    00000010                   : BIOS.obj (.text:ti_sysbios_family_arm_msp432_init_Boot_disableWatchdog)
                  000151e8    00000010                   : BIOS.obj (.text:ti_sysbios_gates_GateMutex_Instance_finalize__E)
                  000151f8    00000010     debug_pem4f.oem4f (.text:ti_sysbios_knl_Mailbox_Object__get__S)
                  00015208    00000010     sysbios.aem4f : BIOS.obj (.text:ti_sysbios_knl_Semaphore_Instance_finalize__E)
                  00015218    00000010                   : BIOS.obj (.text:ti_sysbios_knl_Swi_disable__E)
                  00015228    00000010     debug_pem4f.oem4f (.text:ti_sysbios_knl_Task_Object__get__S)
                  00015238    00000010     sysbios.aem4f : BIOS.obj (.text:ti_sysbios_knl_Task_disable__E)
                  00015248    00000010     debug_pem4f.oem4f (.text:ti_uia_loggers_LoggerStopMode_Object__get__S)
                  00015258    00000010     ti.uia.loggers.aem4f : LoggerStopMode.oem4f (.text:ti_uia_loggers_LoggerStopMode_isEmpty__E)
                  00015268    00000010     rtsv7M4_T_le_v4SPD16_eabi.lib : tolower.c.obj (.text:tolower)
                  00015278    00000010                                   : toupper.c.obj (.text:toupper)
                  00015288    00000010     sysbios.aem4f : BIOS.obj (.text:xdc_runtime_Gate_leaveSystem__E)
                  00015298    00000010                   : BIOS.obj (.text:xdc_runtime_Memory_free__E)
                  000152a8    00000010                   : BIOS.obj (.text:xdc_runtime_SysMin_ready__E)
                  000152b8    00000010     debug_pem4f.oem4f (.text:xdc_runtime_Text_visitRope__I)
                  000152c8    0000000e     Utils.obj (.text:_Z11utilsGetUIDPh)
                  000152d6    0000000e     HttpClient.obj (.text:_ZN10HttpClient19httpResponseTimeoutEv)
                  000152e4    0000000e     rtsv7M4_T_le_v4SPD16_eabi.lib : typeinfo.c.obj (.text:_ZN10__cxxabiv117__class_type_infoD0Ev)
                  000152f2    0000000e                                   : typeinfo.c.obj (.text:_ZN10__cxxabiv120__si_class_type_infoD0Ev)
                  00015300    0000000e     TinyGPS++.obj (.text:_ZN11TinyGPSHDOPC1Ev)
                  0001530e    0000000e     ConnService.obj (.text:_ZN11TinyGsmFifoIhLj64EEC1Ev)
                  0001531c    0000000e     TinyGPS++.obj (.text:_ZN12TinyGPSSpeedC1Ev)
                  0001532a    0000000e     TinyGPS++.obj (.text:_ZN13TinyGPSCourseC1Ev)
                  00015338    0000000e     ConnService.obj (.text:_ZN13TinyGsmSim8009GsmClient4peekEv)
                  00015346    0000000e     ConnService.obj (.text:_ZN15StringSumHelperD1Ev)
                  00015354    0000000e     TinyGPS++.obj (.text:_ZN15TinyGPSAltitudeC1Ev)
                  00015362    0000000e     Airio.obj (.text:_ZNK15TinyGPSLocation7isValidEv)
                  00015370    0000000e     ConnService.obj (.text:_ZNK6String5c_strEv)
                  0001537e    0000000e     ConnService.obj (.text:_ZNK6String6lengthEv)
                  0001538c    0000000e     rtsv7M4_T_le_v4SPD16_eabi.lib : copy_decompress_none.c.obj (.text:decompress:none:__TI_decompress_none)
                  0001539a    00000006     --HOLE-- [fill = 0]
                  000153a0    0000000e     sysbios.aem4f : BIOS.obj (.text:ti_sysbios_knl_Idle_loop__E)
                  000153ae    00000002     --HOLE-- [fill = 0]
                  000153b0    0000000e                   : BIOS.obj (.text:ti_sysbios_knl_Queue_empty__E)
                  000153be    0000000c     msp432p4xx_driverlib.lib : cpu.o (.text:CPU_cpsid)
                  000153ca    0000000c                              : cpu.o (.text:CPU_cpsie)
                  000153d6    0000000c     dpl_msp432p401x.aem4f : ClockP_tirtos.oem4f (.text:ClockP_delete)
                  000153e2    0000000c                           : HwiP_tirtos.oem4f (.text:HwiP_delete)
                  000153ee    00000002     --HOLE-- [fill = 0]
                  000153f0    0000000c     drivers_msp432p401x.aem4f : PowerMSP432.oem4f (.text:Power_getConstraintMask)
                  000153fc    0000000c                               : PowerMSP432.oem4f (.text:Power_getPerformanceLevel)
                  00015408    0000000c     dpl_msp432p401x.aem4f : SemaphoreP_tirtos.oem4f (.text:SemaphoreP_delete)
                  00015414    0000000c     HttpClient.obj (.text:_ZN10HttpClient11endOfStreamEv)
                  00015420    0000000c     HttpClient.obj (.text:_ZN10HttpClient9completedEv)
                  0001542c    0000000c     TinyGPS++.obj (.text:_ZN14TinyGPSDecimalC2Ev)
                  00015438    0000000c     ConnService.obj (.text:_ZN5PrintC2Ev)
                  00015444    0000000c     ConnService.obj (.text:_ZN6ClientC2Ev)
                  00015450    0000000c     ConnService.obj (.text:_ZN6StreamC2Ev)
                  0001545c    0000000c     EnergiaCoreMSP432.lib : IPAddress.obj (.text:_ZN9PrintableC2Ev)
                  00015468    0000000c     rtsv7M4_T_le_v4SPD16_eabi.lib : dtor_list.c.obj (.text:__cxa_finalize)
                  00015474    0000000c                                   : _lock.c.obj (.text:_register_lock)
                  00015480    0000000c                                   : _lock.c.obj (.text:_register_unlock)
                  0001548c    0000000c                                   : copy_zero_init.c.obj (.text:decompress:ZI:__TI_zero_init)
                  00015498    0000000c     debug_pem4f.oem4f (.text:ti_sysbios_family_arm_m3_Hwi_Params__init__S)
                  000154a4    00000004     --HOLE-- [fill = 0]
                  000154a8    0000000c     sysbios.aem4f : BIOS.obj (.text:ti_sysbios_family_arm_m3_Hwi_disableFxn__E)
                  000154b4    00000004     --HOLE-- [fill = 0]
                  000154b8    0000000c                   : BIOS.obj (.text:ti_sysbios_family_arm_m3_TaskSupport_checkStack__E)
                  000154c4    00000004     --HOLE-- [fill = 0]
                  000154c8    0000000c                   : BIOS.obj (.text:ti_sysbios_family_arm_m3_TaskSupport_getStackAlignment__E)
                  000154d4    00000004     --HOLE-- [fill = 0]
                  000154d8    0000000c                   : BIOS.obj (.text:ti_sysbios_family_arm_msp432_Timer_getAvailMask__E)
                  000154e4    00000004     --HOLE-- [fill = 0]
                  000154e8    0000000c                   : BIOS.obj (.text:ti_sysbios_family_arm_msp432_Timer_getMaxTicks__E)
                  000154f4    00000004     --HOLE-- [fill = 0]
                  000154f8    0000000c                   : BIOS.obj (.text:ti_sysbios_gates_GateHwi_enter__E)
                  00015504    00000004     --HOLE-- [fill = 0]
                  00015508    0000000c                   : BIOS.obj (.text:ti_sysbios_heaps_HeapTrack_isBlocking__E)
                  00015514    0000000c     debug_pem4f.oem4f (.text:ti_sysbios_knl_Clock_Params__init__S)
                  00015520    0000000c     sysbios.aem4f : BIOS.obj (.text:ti_sysbios_knl_Clock_getTicks__E)
                  0001552c    00000004     --HOLE-- [fill = 0]
                  00015530    0000000c                   : BIOS.obj (.text:ti_sysbios_knl_Clock_getTimerHandle__E)
                  0001553c    0000000c     debug_pem4f.oem4f (.text:ti_sysbios_knl_Queue_Object__get__S)
                  00015548    0000000c     debug_pem4f.oem4f (.text:ti_sysbios_knl_Semaphore_Params__init__S)
                  00015554    0000000c     debug_pem4f.oem4f (.text:ti_sysbios_knl_Task_Params__init__S)
                  00015560    0000000c     sysbios.aem4f : BIOS.obj (.text:ti_sysbios_knl_Task_self__E)
                  0001556c    00000004     --HOLE-- [fill = 0]
                  00015570    0000000c                   : BIOS.obj (.text:ti_sysbios_rts_ti_ReentSupport_taskRegHook__I)
                  0001557c    00000004     --HOLE-- [fill = 0]
                  00015580    0000000c                   : BIOS.obj (.text:xdc_runtime_Gate_enterSystem__E)
                  0001558c    00000004     --HOLE-- [fill = 0]
                  00015590    0000000c                   : BIOS.obj (.text:xdc_runtime_Startup_rtsDone__E)
                  0001559c    0000000a     drivers_msp432p401x.aem4f : ADC.oem4f (.text:ADC_close)
                  000155a6    0000000a     dpl_msp432p401x.aem4f : ClockP_tirtos.oem4f (.text:ClockP_Params_init)
                  000155b0    0000000a     drivers_msp432p401x.aem4f : PWM.oem4f (.text:PWM_close)
                  000155ba    0000000a                               : PWM.oem4f (.text:PWM_setDuty)
                  000155c4    0000000a                               : PWM.oem4f (.text:PWM_start)
                  000155ce    0000000a                               : UART.oem4f (.text:UART_close)
                  000155d8    0000000a                               : UART.oem4f (.text:UART_control)
                  000155e2    0000000a                               : UART.oem4f (.text:UART_read)
                  000155ec    0000000a                               : UART.oem4f (.text:UART_write)
                  000155f6    0000000a     rtsv7M4_T_le_v4SPD16_eabi.lib : sprintf.c.obj (.text:_outc)
                  00015600    0000000a     debug_pem4f.oem4f (.text:xdc_runtime_IHeap_alloc)
                  0001560a    0000000a     debug_pem4f.oem4f (.text:xdc_runtime_IHeap_free)
                  00015614    0000000a     debug_pem4f.oem4f (.text:xdc_runtime_IHeap_getStats)
                  0001561e    00000008     dpl_msp432p401x.aem4f : SemaphoreP_tirtos.oem4f (.text:SemaphoreP_Params_init)
                  00015626    00000008     drivers_msp432p401x.aem4f : WatchdogMSP432.oem4f (.text:WatchdogMSP432_init)
                  0001562e    00000008                               : UARTMSP432.oem4f (.text:readSemCallback)
                  00015636    00000002     --HOLE-- [fill = 0]
                  00015638    00000008     sysbios.aem4f : BIOS.obj (.text:ti_sysbios_family_arm_m3_Hwi_doSwiRestore__I)
                  00015640    00000008                   : BIOS.obj (.text:ti_sysbios_family_arm_m3_Hwi_startup__E)
                  00015648    00000008     drivers_msp432p401x.aem4f : UARTMSP432.oem4f (.text:txcptEnabledStatus)
                  00015650    00000008                               : UARTMSP432.oem4f (.text:writeSemCallback)
                  00015658    00000006     sysbios.aem4f : BIOS.obj (.text:ti_sysbios_family_arm_m3_Hwi_doTaskRestore__I)
                  0001565e    00000002     --HOLE-- [fill = 0]
                  00015660    00000006                   : BIOS.obj (.text:ti_sysbios_family_arm_m3_Hwi_restoreFxn__E)
                  00015666    00000002     --HOLE-- [fill = 0]
                  00015668    00000006                   : BIOS.obj (.text:ti_sysbios_gates_GateHwi_leave__E)
                  0001566e    00000002     --HOLE-- [fill = 0]
                  00015670    00000006                   : BIOS.obj (.text:ti_sysbios_heaps_HeapMem_isBlocking__E)
                  00015676    00000002     --HOLE-- [fill = 0]
                  00015678    00000006                   : BIOS.obj (.text:ti_sysbios_knl_Clock_stop__E)
                  0001567e    00000002     --HOLE-- [fill = 0]
                  00015680    00000006                   : BIOS.obj (.text:ti_sysbios_knl_Queue_Instance_init__E)
                  00015686    00000002     --HOLE-- [fill = 0]
                  00015688    00000006                   : BIOS.obj (.text:ti_sysbios_knl_Swi_startup__E)
                  0001568e    00000002     --HOLE-- [fill = 0]
                  00015690    00000006                   : BIOS.obj (.text:xdc_runtime_System_Module_startup__E)
                  00015696    00000002     --HOLE-- [fill = 0]
                  00015698    00000004                   : BIOS.obj (.text:__aeabi_errno_addr)
                  0001569c    00000004     --HOLE-- [fill = 0]
                  000156a0    00000004                   : BIOS.obj (.text:ti_sysbios_gates_GateHwi_query__E)
                  000156a4    00000004     --HOLE-- [fill = 0]
                  000156a8    00000004                   : BIOS.obj (.text:ti_sysbios_gates_GateMutex_query__E)
                  000156ac    00000004     --HOLE-- [fill = 0]
                  000156b0    00000004                   : BIOS.obj (.text:ti_sysbios_knl_Clock_setTimeout__E)
                  000156b4    00000004     --HOLE-- [fill = 0]
                  000156b8    00000004                   : BIOS.obj (.text:ti_sysbios_knl_Task_startup__E)
                  000156bc    00000004     --HOLE-- [fill = 0]
                  000156c0    00000002                   : BIOS.obj (.text:ti_sysbios_BIOS_linkedWithIncorrectBootLibrary__E)
                  000156c2    00000006     --HOLE-- [fill = 0]
                  000156c8    00000002                   : BIOS.obj (.text:ti_sysbios_family_arm_m3_TimestampProvider_rolloverFunc__E)
                  000156ca    00000006     --HOLE-- [fill = 0]
                  000156d0    00000002                   : BIOS.obj (.text:ti_sysbios_gates_GateHwi_Instance_init__E)

.const     0    000156d8    00003699     
                  000156d8    0000203e     debug_pem4f.oem4f (.const:xdc_runtime_Text_charTab__A)
                  00017716    00000002     ConnService.obj (.const:.string:_ZZN13TinyGsmSim80011gprsConnectEPKcS1_S1_Es__13_)
                  00017718    000001b0     EnergiaCoreMSP432.lib : Board_init.obj (.const:uartMSP432Baudrates)
                  000178c8    00000120                           : Board_init.obj (.const:ADC_config)
                  000179e8    00000118     debug_pem4f.oem4f (.const:xdc_runtime_Text_nodeTab__A)
                  00017b00    00000101     rtsv7M4_T_le_v4SPD16_eabi.lib : ctype.c.obj (.const:.string:_ctypes_)
                  00017c01    00000003     ConnService.obj (.const:.string:_ZZN13TinyGsmSim80012getModemInfoEvEs_2)
                  00017c04    000000b0     EnergiaCoreMSP432.lib : Board_init.obj (.const:uartMSP432HWAttrs)
                  00017cb4    00000090                           : Board_init.obj (.const:PWM_config)
                  00017d44    00000080     msp432p4xx_driverlib.lib : adc14.o (.const:_ctlRegs)
                  00017dc4    00000060     rtsv7M4_T_le_v4SPD16_eabi.lib : mktime.c.obj (.const:$O1$$)
                  00017e24    00000060     debug_pem4f.oem4f (.const:ti_uia_loggers_LoggerStopMode_Module__FXNS__C)
                  00017e84    00000052     EnergiaCoreMSP432.lib : pins.obj (.const:.string:digital_pin_to_adc_index)
                  00017ed6    00000002     ConnService.obj (.const:.string:_ZZN13TinyGsmSim80012getModemInfoEvEs)
                  00017ed8    00000050     HttpClient.obj (.const:_ZTV10HttpClient)
                  00017f28    0000004c     ConnService.obj (.const:_ZTVN13TinyGsmSim8009GsmClientE)
                  00017f74    00000040     ConnService.obj (.const:_ZTV6Client)
                  00017fb4    0000003c     debug_pem4f.oem4f (.const:ti_sysbios_knl_Task_Object__PARAMS__C)
                  00017ff0    00000038     HttpClient.obj (.const:.string)
                  00018028    00000038     EnergiaCoreMSP432.lib : Board_init.obj (.const:PowerMSP432_config)
                  00018060    00000034     debug_pem4f.oem4f (.const:xdc_runtime_Startup_sfxnTab__A)
                  00018094    00000004     ConnService.obj (.const:.string:_ZZN13TinyGsmSim80011gprsConnectEPKcS1_S1_Es__12_)
                  00018098    00000030     rtsv7M4_T_le_v4SPD16_eabi.lib : e_pow.c.obj (.const:$O1$$)
                  000180c8    00000030     EnergiaCoreMSP432.lib : Board_init.obj (.const:UART_config)
                  000180f8    00000030     debug_pem4f.oem4f (.const:ti_sysbios_family_arm_m3_Hwi_Object__PARAMS__C)
                  00018128    00000028     EnergiaCoreMSP432.lib : Board_init.obj (.const:myUARTMSP432_fxnTable)
                  00018150    00000028     debug_pem4f.oem4f (.const:ti_sysbios_heaps_HeapMem_Module__FXNS__C)
                  00018178    00000028     debug_pem4f.oem4f (.const:ti_sysbios_heaps_HeapTrack_Module__FXNS__C)
                  000181a0    00000028     debug_pem4f.oem4f (.const:ti_uia_loggers_LoggerStopMode_Object__PARAMS__C)
                  000181c8    00000025     rtsv7M4_T_le_v4SPD16_eabi.lib : typeinfo.c.obj (.const:.typeinfo:_ZTSN10__cxxabiv120__si_class_type_infoE)
                  000181ed    00000003     ConnService.obj (.const:.string:_ZZN13TinyGsmSim80012modemConnectEPKcthbiEs_3)
                  000181f0    00000024     drivers_msp432p401x.aem4f : UART.oem4f (.const:UART_defaultParams)
                  00018214    00000024     EnergiaCoreMSP432.lib : Board_init.obj (.const:myPWMTimerMSP432_fxnTable)
                  00018238    00000024     debug_pem4f.oem4f (.const:ti_sysbios_gates_GateHwi_Module__FXNS__C)
                  0001825c    00000024     debug_pem4f.oem4f (.const:ti_sysbios_gates_GateMutex_Module__FXNS__C)
                  00018280    00000024     debug_pem4f.oem4f (.const:ti_sysbios_heaps_HeapMem_Object__PARAMS__C)
                  000182a4    00000024     debug_pem4f.oem4f (.const:ti_sysbios_knl_Clock_Object__PARAMS__C)
                  000182c8    00000024     debug_pem4f.oem4f (.const:ti_sysbios_knl_Semaphore_Object__PARAMS__C)
                  000182ec    00000022     rtsv7M4_T_le_v4SPD16_eabi.lib : typeinfo.c.obj (.const:.typeinfo:_ZTSN10__cxxabiv117__class_type_infoE)
                  0001830e    00000002     ConnService.obj (.const:.string:_ZZN13TinyGsmSim80012getModemInfoEvEs_3)
                  00018310    00000020     EnergiaCoreMSP432.lib : HardwareSerial.obj (.const:_ZTV14HardwareSerial)
                  00018330    00000020     ConnService.obj (.const:_ZTV6Stream)
                  00018350    00000020     drivers_msp432p401x.aem4f : UARTMSP432.oem4f (.const:staticFxnTable)
                  00018370    00000020     debug_pem4f.oem4f (.const:ti_sysbios_family_arm_m3_Hwi_Object__DESC__C)
                  00018390    00000020     debug_pem4f.oem4f (.const:ti_sysbios_gates_GateHwi_Object__DESC__C)
                  000183b0    00000020     debug_pem4f.oem4f (.const:ti_sysbios_gates_GateMutex_Object__DESC__C)
                  000183d0    00000020     debug_pem4f.oem4f (.const:ti_sysbios_heaps_HeapMem_Object__DESC__C)
                  000183f0    00000020     debug_pem4f.oem4f (.const:ti_sysbios_heaps_HeapTrack_Object__DESC__C)
                  00018410    00000020     debug_pem4f.oem4f (.const:ti_sysbios_knl_Clock_Object__DESC__C)
                  00018430    00000020     debug_pem4f.oem4f (.const:ti_sysbios_knl_Queue_Object__DESC__C)
                  00018450    00000020     debug_pem4f.oem4f (.const:ti_sysbios_knl_Semaphore_Object__DESC__C)
                  00018470    00000020     debug_pem4f.oem4f (.const:ti_sysbios_knl_Task_Object__DESC__C)
                  00018490    00000020     debug_pem4f.oem4f (.const:ti_uia_loggers_LoggerStopMode_Object__DESC__C)
                  000184b0    0000001d     ConnService.obj (.const:.string:_ZZN13TinyGsmSim80011gprsConnectEPKcS1_S1_Es__16_)
                  000184cd    0000001c     ConnService.obj (.const:.string:_ZZN13TinyGsmSim80011gprsConnectEPKcS1_S1_Es)
                  000184e9    0000001c     ConnService.obj (.const:.typeinfo:_ZTSN13TinyGsmSim8009GsmClientE)
                  00018505    00000003     ConnService.obj (.const:.string:_ZZN13TinyGsmSim80012waitResponseEjR6StringPKcS3_S3_S3_S3_Es_3)
                  00018508    0000001c     drivers_msp432p401x.aem4f : WatchdogMSP432.oem4f (.const:WatchdogMSP432_fxnTable)
                  00018524    0000001c     MainBoard.obj (.const:_ZTV9MainBoard)
                  00018540    0000001c     debug_pem4f.oem4f (.const:ti_sysbios_heaps_HeapTrack_Object__PARAMS__C)
                  0001855c    0000001a     debug_pem4f.oem4f (.const:xdc_runtime_Startup_sfxnRts__A)
                  00018576    00000002     ConnService.obj (.const:.string:_ZZN13TinyGsmSim8009GsmClient7connectE9IPAddresstiEs)
                  00018578    00000018     drivers_msp432p401x.aem4f : PWM.oem4f (.const:PWM_defaultParams)
                  00018590    00000018     EnergiaCoreMSP432.lib : Board_init.obj (.const:myADCMSP432_fxnTable)
                  000185a8    00000018     debug_pem4f.oem4f (.const:ti_sysbios_gates_GateHwi_Object__PARAMS__C)
                  000185c0    00000018     debug_pem4f.oem4f (.const:ti_sysbios_gates_GateMutex_Object__PARAMS__C)
                  000185d8    00000018     debug_pem4f.oem4f (.const:ti_sysbios_knl_Queue_Object__PARAMS__C)
                  000185f0    00000018     debug_pem4f.oem4f (.const:ti_sysbios_knl_Task_hooks__A)
                  00018608    00000014     ConnService.obj (.const:.string:_ZZN13TinyGsmSim80011gprsConnectEPKcS1_S1_Es_1)
                  0001861c    00000014     EnergiaCoreMSP432.lib : Board_init.obj (.const:GPIOMSP432_config)
                  00018630    00000013     ConnService.obj (.const:.string:_ZZN13TinyGsmSim80011gprsConnectEPKcS1_S1_Es_0)
                  00018643    00000013     ConnService.obj (.const:.string:_ZZN13TinyGsmSim80011gprsConnectEPKcS1_S1_Es_2)
                  00018656    00000012     ConnService.obj (.const:.string:_ZZN13TinyGsmSim80011gprsConnectEPKcS1_S1_Es_3)
                  00018668    00000012     ConnService.obj (.const:.string:_ZZN13TinyGsmSim80012modemConnectEPKcthbiEs_6)
                  0001867a    00000012     ConnService.obj (.const:.string:_ZZN13TinyGsmSim80017modemGetConnectedEhEs_4)
                  0001868c    00000011     EnergiaCoreMSP432.lib : HardwareSerial.obj (.const:.typeinfo:_ZTS14HardwareSerial)
                  0001869d    00000003     ConnService.obj (.const:.string:_ZZN13TinyGsmSim8006sendATIJPKcEEEvDpT_Es)
                  000186a0    00000010     EnergiaCoreMSP432.lib : Print.obj (.const:_ZTV5Print)
                  000186b0    00000010     rtsv7M4_T_le_v4SPD16_eabi.lib : typeinfo.c.obj (.const:_ZTVN10__cxxabiv117__class_type_infoE)
                  000186c0    00000010                                   : typeinfo.c.obj (.const:_ZTVN10__cxxabiv120__si_class_type_infoE)
                  000186d0    00000010     drivers_msp432p401x.aem4f : PWMTimerMSP432.oem4f (.const:pwmTimerBaseAddr)
                  000186e0    00000010     debug_pem4f.oem4f (.const:ti_sysbios_knl_Idle_funcList__A)
                  000186f0    0000000f     ConnService.obj (.const:.string:_ZZN13TinyGsmSim80012modemConnectEPKcthbiEs_5)
                  000186ff    0000000f     ConnService.obj (.const:.string:_ZZN13TinyGsmSim8009modemSendEPKvjhEs_1)
                  0001870e    0000000d     ConnService.obj (.const:.string:_ZZN13TinyGsmSim80012getSimStatusEmEs_4)
                  0001871b    0000000d     ConnService.obj (.const:.string:_ZZN13TinyGsmSim80012modemConnectEPKcthbiEs_4)
                  00018728    0000000d     ConnService.obj (.const:.string:_ZZN13TinyGsmSim80012waitResponseEjR6StringPKcS3_S3_S3_S3_Es)
                  00018735    0000000d     ConnService.obj (.const:.string:_ZZN13TinyGsmSim80017modemGetAvailableEhEs)
                  00018742    0000000d     ConnService.obj (.const:.string:_ZZN13TinyGsmSim80017modemGetConnectedEhEs_1)
                  0001874f    0000000d     ConnService.obj (.const:.string:_ZZN13TinyGsmSim8009modemReadEjhEs)
                  0001875c    0000000d     HttpClient.obj (.const:.typeinfo:_ZTS10HttpClient)
                  00018769    0000000d     rtsv7M4_T_le_v4SPD16_eabi.lib : stdlib_typeinfo.cpp.obj (.const:.typeinfo:_ZTSSt9type_info)
                  00018776    0000000c     ConnService.obj (.const:.string:_ZZN13TinyGsmSim80011gprsConnectEPKcS1_S1_Es_9)
                  00018782    0000000c     ConnService.obj (.const:.string:_ZZN13TinyGsmSim80011gprsConnectEPKcS1_S1_Es__10_)
                  0001878e    0000000c     ConnService.obj (.const:.string:_ZZN13TinyGsmSim80012waitResponseEjR6StringPKcS3_S3_S3_S3_Es_1)
                  0001879a    0000000c     ConnService.obj (.const:.string:_ZZN13TinyGsmSim80017modemGetConnectedEhEs)
                  000187a6    00000002     ConnService.obj (.const:.string:_ZZN13TinyGsmSim8009modemSendEPKvjhEs_0)
                  000187a8    0000000c     HttpClient.obj (.const:.typeinfo:_ZTI10HttpClient)
                  000187b4    0000000c     EnergiaCoreMSP432.lib : HardwareSerial.obj (.const:.typeinfo:_ZTI14HardwareSerial)
                  000187c0    0000000c     ConnService.obj (.const:.typeinfo:_ZTI6Client)
                  000187cc    0000000c     ConnService.obj (.const:.typeinfo:_ZTI6Stream)
                  000187d8    0000000c     EnergiaCoreMSP432.lib : IPAddress.obj (.const:.typeinfo:_ZTI9IPAddress)
                  000187e4    0000000c     rtsv7M4_T_le_v4SPD16_eabi.lib : typeinfo.c.obj (.const:.typeinfo:_ZTIN10__cxxabiv117__class_type_infoE)
                  000187f0    0000000c                                   : typeinfo.c.obj (.const:.typeinfo:_ZTIN10__cxxabiv120__si_class_type_infoE)
                  000187fc    0000000c     ConnService.obj (.const:.typeinfo:_ZTIN13TinyGsmSim8009GsmClientE)
                  00018808    0000000c     EnergiaCoreMSP432.lib : Board_init.obj (.const:Watchdog_config)
                  00018814    0000000c                           : IPAddress.obj (.const:_ZTV9IPAddress)
                  00018820    0000000c     ConnService.obj (.const:_ZTV9Printable)
                  0001882c    0000000c     debug_pem4f.oem4f (.const:ti_sysbios_family_arm_msp432_Seconds_daysPerMonthLeap__A)
                  00018838    0000000c     debug_pem4f.oem4f (.const:ti_sysbios_family_arm_msp432_Seconds_daysPerMonthNonLeap__A)
                  00018844    0000000c     debug_pem4f.oem4f (.const:xdc_runtime_Startup_firstFxns__A)
                  00018850    0000000b     ConnService.obj (.const:.string:_ZZN13TinyGsmSim80011gprsConnectEPKcS1_S1_Es_4)
                  0001885b    0000000b     ConnService.obj (.const:.string:_ZZN13TinyGsmSim80011gprsConnectEPKcS1_S1_Es_5)
                  00018866    0000000b     ConnService.obj (.const:.string:_ZZN13TinyGsmSim80011gprsConnectEPKcS1_S1_Es_6)
                  00018871    0000000b     ConnService.obj (.const:.string:_ZZN13TinyGsmSim80012modemConnectEPKcthbiEs_0)
                  0001887c    0000000b     ConnService.obj (.const:.string:_ZZN13TinyGsmSim80012modemConnectEPKcthbiEs_8)
                  00018887    0000000b     ConnService.obj (.const:.string:_ZZN13TinyGsmSim80017modemGetAvailableEhEs_0)
                  00018892    0000000b     ConnService.obj (.const:.string:_ZZN13TinyGsmSim80017modemGetConnectedEhEs_0)
                  0001889d    0000000b     ConnService.obj (.const:.string:_ZZN13TinyGsmSim80017modemGetConnectedEhEs_3)
                  000188a8    0000000b     ConnService.obj (.const:.string:_ZZN13TinyGsmSim80017modemGetConnectedEhEs_5)
                  000188b3    0000000b     ConnService.obj (.const:.string:_ZZN13TinyGsmSim8009GsmClient4stopEvEs)
                  000188be    0000000b     ConnService.obj (.const:.string:_ZZN13TinyGsmSim8009modemReadEjhEs_0)
                  000188c9    0000000b     EnergiaCoreMSP432.lib : IPAddress.obj (.const:.typeinfo:_ZTS9IPAddress)
                  000188d4    0000000b     MainBoard.obj (.const:.typeinfo:_ZTS9MainBoard)
                  000188df    0000000b     ConnService.obj (.const:.typeinfo:_ZTS9Printable)
                  000188ea    0000000a     ConnService.obj (.const:.string:_ZZN13TinyGsmSim80011gprsConnectEPKcS1_S1_Es_8)
                  000188f4    0000000a     ConnService.obj (.const:.string:_ZZN13TinyGsmSim80011gprsConnectEPKcS1_S1_Es__15_)
                  000188fe    0000000a     ConnService.obj (.const:.string:_ZZN13TinyGsmSim80012getSimStatusEmEs_5)
                  00018908    0000000a     ConnService.obj (.const:.string:_ZZN13TinyGsmSim80017modemGetConnectedEhEs_2)
                  00018912    0000000a     ConnService.obj (.const:.string:_ZZN13TinyGsmSim8009modemSendEPKvjhEs)
                  0001891c    00000009     ConnService.obj (.const:.string:_ZZN13TinyGsmSim80011gprsConnectEPKcS1_S1_Es_7)
                  00018925    00000009     ConnService.obj (.const:.string:_ZZN13TinyGsmSim80012getSimStatusEmEs_0)
                  0001892e    00000009     ConnService.obj (.const:.string:_ZZN13TinyGsmSim80012modemConnectEPKcthbiEs)
                  00018937    00000009     ConnService.obj (.const:.string:_ZZN13TinyGsmSim80012waitResponseEjR6StringPKcS3_S3_S3_S3_Es_2)
                  00018940    00000009     ConnService.obj (.const:.string:_ZZN13TinyGsmSim80014gprsDisconnectEvEs)
                  00018949    00000009     ConnService.obj (.const:.string:_ZZN13TinyGsmSim80014gprsDisconnectEvEs_0)
                  00018952    00000009     ConnService.obj (.const:.string:_ZZN13TinyGsmSim80021getRegistrationStatusEvEs_0)
                  0001895b    00000008     ConnService.obj (.const:.string:GSM_ERROR)
                  00018963    00000008     ConnService.obj (.const:.string:_ZZN13TinyGsmSim80011gprsConnectEPKcS1_S1_Es__11_)
                  0001896b    00000008     ConnService.obj (.const:.string:_ZZN13TinyGsmSim80012getSimStatusEmEs_2)
                  00018973    00000008     ConnService.obj (.const:.string:_ZZN13TinyGsmSim80012getSimStatusEmEs_3)
                  0001897b    00000008     ConnService.obj (.const:.string:_ZZN13TinyGsmSim80012modemConnectEPKcthbiEs_7)
                  00018983    00000008     EnergiaCoreMSP432.lib : wiring_analog.obj (.const:.string:pxmap)
                  0001898b    00000001     ConnService.obj (.const:.string:_ZZN13TinyGsmSim80012getModemInfoEvEs_0)
                  0001898c    00000008     EnergiaCoreMSP432.lib : Print.obj (.const:.typeinfo:_ZTI5Print)
                  00018994    00000008     MainBoard.obj (.const:.typeinfo:_ZTI9MainBoard)
                  0001899c    00000008     ConnService.obj (.const:.typeinfo:_ZTI9Printable)
                  000189a4    00000008     rtsv7M4_T_le_v4SPD16_eabi.lib : stdlib_typeinfo.cpp.obj (.const:.typeinfo:_ZTISt9type_info)
                  000189ac    00000008     ConnService.obj (.const:.typeinfo:_ZTS6Client)
                  000189b4    00000008     ConnService.obj (.const:.typeinfo:_ZTS6Stream)
                  000189bc    00000008     debug_pem4f.oem4f (.const:ti_sysbios_family_arm_m3_Hwi_excHookFuncs__A)
                  000189c4    00000008     debug_pem4f.oem4f (.const:ti_sysbios_knl_Idle_funcList__C)
                  000189cc    00000008     debug_pem4f.oem4f (.const:ti_sysbios_knl_Task_hooks__C)
                  000189d4    00000008     EnergiaCoreMSP432.lib : Board_init.obj (.const:watchdogMSP432HWAttrs)
                  000189dc    00000008     debug_pem4f.oem4f (.const:xdc_runtime_Startup_firstFxns__C)
                  000189e4    00000008     debug_pem4f.oem4f (.const:xdc_runtime_Startup_lastFxns__C)
                  000189ec    00000007     ConnService.obj (.const:.string:_ZZN13TinyGsmSim80011gprsConnectEPKcS1_S1_Es__14_)
                  000189f3    00000007     ConnService.obj (.const:.string:_ZZN13TinyGsmSim80012getModemInfoEvEs_1)
                  000189fa    00000007     ConnService.obj (.const:.string:_ZZN13TinyGsmSim80012getSimStatusEmEs)
                  00018a01    00000007     ConnService.obj (.const:.string:_ZZN13TinyGsmSim80021getRegistrationStatusEvEs)
                  00018a08    00000007     EnergiaCoreMSP432.lib : Print.obj (.const:.typeinfo:_ZTS5Print)
                  00018a0f    00000007                           : Board_init.obj (.const)
                  00018a16    00000006     ConnService.obj (.const:.string:_ZZN13TinyGsmSim80012getSimStatusEmEs_1)
                  00018a1c    00000006     drivers_msp432p401x.aem4f : GPIOMSP432.oem4f (.const:.string:interruptType)
                  00018a22    00000002     debug_pem4f.oem4f (.const:ti_sysbios_family_arm_m3_Hwi_Module__id__C)
                  00018a24    00000006     main.obj (.const:.string)
                  00018a2a    00000006     drivers_msp432p401x.aem4f : GPIOMSP432.oem4f (.const:.string:portInterruptIds)
                  00018a30    00000005     ConnService.obj (.const:.string:GSM_OK)
                  00018a35    00000005     ConnService.obj (.const:.string:_ZZN13TinyGsmSim80012modemConnectEPKcthbiEs_1)
                  00018a3a    00000005     drivers_msp432p401x.aem4f : UARTMSP432.oem4f (.const:.string:parityTypes)
                  00018a3f    00000004     ConnService.obj (.const:.string:_ZZN13TinyGsmSim80012modemConnectEPKcthbiEs_2)
                  00018a43    00000001     ConnService.obj (.const:.string:_ZZN13TinyGsmSim80012waitResponseEjR6StringPKcS3_S3_S3_S3_Es_0)
                  00018a44    00000004     drivers_msp432p401x.aem4f : UARTMSP432.oem4f (.const:stopBits)
                  00018a48    00000004     debug_pem4f.oem4f (.const:ti_sysbios_family_arm_m3_Hwi_E_NMI__C)
                  00018a4c    00000004     debug_pem4f.oem4f (.const:ti_sysbios_family_arm_m3_Hwi_E_alreadyDefined__C)
                  00018a50    00000004     debug_pem4f.oem4f (.const:ti_sysbios_family_arm_m3_Hwi_E_badIntNum__C)
                  00018a54    00000004     debug_pem4f.oem4f (.const:ti_sysbios_family_arm_m3_Hwi_E_busFault__C)
                  00018a58    00000004     debug_pem4f.oem4f (.const:ti_sysbios_family_arm_m3_Hwi_E_debugMon__C)
                  00018a5c    00000004     debug_pem4f.oem4f (.const:ti_sysbios_family_arm_m3_Hwi_E_hardFault__C)
                  00018a60    00000004     debug_pem4f.oem4f (.const:ti_sysbios_family_arm_m3_Hwi_E_memFault__C)
                  00018a64    00000004     debug_pem4f.oem4f (.const:ti_sysbios_family_arm_m3_Hwi_E_noIsr__C)
                  00018a68    00000004     debug_pem4f.oem4f (.const:ti_sysbios_family_arm_m3_Hwi_E_reserved__C)
                  00018a6c    00000004     debug_pem4f.oem4f (.const:ti_sysbios_family_arm_m3_Hwi_E_svCall__C)
                  00018a70    00000004     debug_pem4f.oem4f (.const:ti_sysbios_family_arm_m3_Hwi_E_usageFault__C)
                  00018a74    00000004     debug_pem4f.oem4f (.const:ti_sysbios_family_arm_m3_Hwi_LD_end__C)
                  00018a78    00000004     debug_pem4f.oem4f (.const:ti_sysbios_family_arm_m3_Hwi_LM_begin__C)
                  00018a7c    00000004     debug_pem4f.oem4f (.const:ti_sysbios_family_arm_m3_Hwi_Module__diagsEnabled__C)
                  00018a80    00000004     debug_pem4f.oem4f (.const:ti_sysbios_family_arm_m3_Hwi_Module__diagsIncluded__C)
                  00018a84    00000004     debug_pem4f.oem4f (.const:ti_sysbios_family_arm_m3_Hwi_Module__diagsMask__C)
                  00018a88    00000004     debug_pem4f.oem4f (.const:ti_sysbios_family_arm_m3_Hwi_Module__loggerFxn1__C)
                  00018a8c    00000004     debug_pem4f.oem4f (.const:ti_sysbios_family_arm_m3_Hwi_Module__loggerFxn8__C)
                  00018a90    00000004     debug_pem4f.oem4f (.const:ti_sysbios_family_arm_m3_Hwi_Module__loggerObj__C)
                  00018a94    00000004     debug_pem4f.oem4f (.const:ti_sysbios_family_arm_m3_Hwi_NUM_INTERRUPTS__C)
                  00018a98    00000004     debug_pem4f.oem4f (.const:ti_sysbios_family_arm_m3_Hwi_Object__count__C)
                  00018a9c    00000004     debug_pem4f.oem4f (.const:ti_sysbios_family_arm_m3_Hwi_ccr__C)
                  00018aa0    00000004     debug_pem4f.oem4f (.const:ti_sysbios_family_arm_m3_Hwi_excHandlerFunc__C)
                  00018aa4    00000004     debug_pem4f.oem4f (.const:ti_sysbios_family_arm_m3_Hwi_excHookFuncs__C)
                  00018aa8    00000004     debug_pem4f.oem4f (.const:ti_sysbios_family_arm_m3_Hwi_nullIsrFunc__C)
                  00018aac    00000004     debug_pem4f.oem4f (.const:ti_sysbios_family_arm_m3_Hwi_priGroup__C)
                  00018ab0    00000004     debug_pem4f.oem4f (.const:ti_sysbios_family_arm_m3_Hwi_swiDisable__C)
                  00018ab4    00000004     debug_pem4f.oem4f (.const:ti_sysbios_family_arm_m3_Hwi_swiRestore__C)
                  00018ab8    00000004     debug_pem4f.oem4f (.const:ti_sysbios_family_arm_m3_TaskSupport_stackAlignment__C)
                  00018abc    00000004     debug_pem4f.oem4f (.const:ti_sysbios_family_arm_m3_Timer_E_cannotSupport__C)
                  00018ac0    00000004     debug_pem4f.oem4f (.const:ti_sysbios_family_arm_m3_Timer_startupNeeded__C)
                  00018ac4    00000004     debug_pem4f.oem4f (.const:ti_sysbios_family_arm_msp432_Seconds_daysPerMonthLeap__C)
                  00018ac8    00000004     debug_pem4f.oem4f (.const:ti_sysbios_family_arm_msp432_Seconds_daysPerMonthNonLeap__C)
                  00018acc    00000004     debug_pem4f.oem4f (.const:ti_sysbios_family_arm_msp432_Timer_numTimerDevices__C)
                  00018ad0    00000004     debug_pem4f.oem4f (.const:ti_sysbios_family_arm_msp432_Timer_startupNeeded__C)
                  00018ad4    00000004     debug_pem4f.oem4f (.const:ti_sysbios_gates_GateMutex_A_badContext__C)
                  00018ad8    00000004     debug_pem4f.oem4f (.const:ti_sysbios_gates_GateMutex_Instance_State_sem__O)
                  00018adc    00000004     debug_pem4f.oem4f (.const:ti_sysbios_gates_GateMutex_Module__diagsEnabled__C)
                  00018ae0    00000004     debug_pem4f.oem4f (.const:ti_sysbios_gates_GateMutex_Module__diagsIncluded__C)
                  00018ae4    00000004     debug_pem4f.oem4f (.const:ti_sysbios_gates_GateMutex_Module__diagsMask__C)
                  00018ae8    00000004     debug_pem4f.oem4f (.const:ti_sysbios_hal_Hwi_E_stackOverflow__C)
                  00018aec    00000004     debug_pem4f.oem4f (.const:ti_sysbios_heaps_HeapMem_A_align__C)
                  00018af0    00000004     debug_pem4f.oem4f (.const:ti_sysbios_heaps_HeapMem_A_heapSize__C)
                  00018af4    00000004     debug_pem4f.oem4f (.const:ti_sysbios_heaps_HeapMem_A_invalidFree__C)
                  00018af8    00000004     debug_pem4f.oem4f (.const:ti_sysbios_heaps_HeapMem_A_zeroBlock__C)
                  00018afc    00000004     debug_pem4f.oem4f (.const:ti_sysbios_heaps_HeapMem_E_memory__C)
                  00018b00    00000004     debug_pem4f.oem4f (.const:ti_sysbios_heaps_HeapMem_Module__diagsEnabled__C)
                  00018b04    00000004     debug_pem4f.oem4f (.const:ti_sysbios_heaps_HeapMem_Module__diagsIncluded__C)
                  00018b08    00000004     debug_pem4f.oem4f (.const:ti_sysbios_heaps_HeapMem_Module__diagsMask__C)
                  00018b0c    00000004     debug_pem4f.oem4f (.const:ti_sysbios_heaps_HeapMem_Module__gateObj__C)
                  00018b10    00000004     debug_pem4f.oem4f (.const:ti_sysbios_heaps_HeapMem_Object__count__C)
                  00018b14    00000004     debug_pem4f.oem4f (.const:ti_sysbios_heaps_HeapMem_primaryHeapBaseAddr__C)
                  00018b18    00000004     debug_pem4f.oem4f (.const:ti_sysbios_heaps_HeapMem_primaryHeapEndAddr__C)
                  00018b1c    00000004     debug_pem4f.oem4f (.const:ti_sysbios_heaps_HeapMem_reqAlign__C)
                  00018b20    00000004     debug_pem4f.oem4f (.const:ti_sysbios_heaps_HeapTrack_A_bufOverflow__C)
                  00018b24    00000004     debug_pem4f.oem4f (.const:ti_sysbios_heaps_HeapTrack_A_doubleFree__C)
                  00018b28    00000004     debug_pem4f.oem4f (.const:ti_sysbios_heaps_HeapTrack_A_notEmpty__C)
                  00018b2c    00000004     debug_pem4f.oem4f (.const:ti_sysbios_heaps_HeapTrack_Instance_State_trackQueue__O)
                  00018b30    00000004     debug_pem4f.oem4f (.const:ti_sysbios_heaps_HeapTrack_Module__diagsEnabled__C)
                  00018b34    00000004     debug_pem4f.oem4f (.const:ti_sysbios_heaps_HeapTrack_Module__diagsIncluded__C)
                  00018b38    00000004     debug_pem4f.oem4f (.const:ti_sysbios_heaps_HeapTrack_Module__diagsMask__C)
                  00018b3c    00000004     debug_pem4f.oem4f (.const:ti_sysbios_knl_Clock_A_badThreadType__C)
                  00018b40    00000004     debug_pem4f.oem4f (.const:ti_sysbios_knl_Clock_LM_begin__C)
                  00018b44    00000004     debug_pem4f.oem4f (.const:ti_sysbios_knl_Clock_LM_tick__C)
                  00018b48    00000004     debug_pem4f.oem4f (.const:ti_sysbios_knl_Clock_LW_delayed__C)
                  00018b4c    00000004     debug_pem4f.oem4f (.const:ti_sysbios_knl_Clock_Module_State_clockQ__O)
                  00018b50    00000004     debug_pem4f.oem4f (.const:ti_sysbios_knl_Clock_Module__diagsEnabled__C)
                  00018b54    00000004     debug_pem4f.oem4f (.const:ti_sysbios_knl_Clock_Module__diagsIncluded__C)
                  00018b58    00000004     debug_pem4f.oem4f (.const:ti_sysbios_knl_Clock_Module__diagsMask__C)
                  00018b5c    00000004     debug_pem4f.oem4f (.const:ti_sysbios_knl_Clock_Module__loggerFxn1__C)
                  00018b60    00000004     debug_pem4f.oem4f (.const:ti_sysbios_knl_Clock_Module__loggerFxn2__C)
                  00018b64    00000004     debug_pem4f.oem4f (.const:ti_sysbios_knl_Clock_Module__loggerObj__C)
                  00018b68    00000004     debug_pem4f.oem4f (.const:ti_sysbios_knl_Clock_doTickFunc__C)
                  00018b6c    00000004     debug_pem4f.oem4f (.const:ti_sysbios_knl_Clock_tickPeriod__C)
                  00018b70    00000004     debug_pem4f.oem4f (.const:ti_sysbios_knl_Mailbox_Instance_State_freeQue__O)
                  00018b74    00000004     debug_pem4f.oem4f (.const:ti_sysbios_knl_Mailbox_Object__count__C)
                  00018b78    00000004     debug_pem4f.oem4f (.const:ti_sysbios_knl_Mailbox_maxTypeAlign__C)
                  00018b7c    00000004     debug_pem4f.oem4f (.const:ti_sysbios_knl_Semaphore_A_badContext__C)
                  00018b80    00000004     debug_pem4f.oem4f (.const:ti_sysbios_knl_Semaphore_A_noEvents__C)
                  00018b84    00000004     debug_pem4f.oem4f (.const:ti_sysbios_knl_Semaphore_A_overflow__C)
                  00018b88    00000004     debug_pem4f.oem4f (.const:ti_sysbios_knl_Semaphore_A_pendTaskDisabled__C)
                  00018b8c    00000004     debug_pem4f.oem4f (.const:ti_sysbios_knl_Semaphore_Instance_State_pendQ__O)
                  00018b90    00000004     debug_pem4f.oem4f (.const:ti_sysbios_knl_Semaphore_LM_pend__C)
                  00018b94    00000004     debug_pem4f.oem4f (.const:ti_sysbios_knl_Semaphore_LM_post__C)
                  00018b98    00000004     debug_pem4f.oem4f (.const:ti_sysbios_knl_Semaphore_Module__diagsEnabled__C)
                  00018b9c    00000004     debug_pem4f.oem4f (.const:ti_sysbios_knl_Semaphore_Module__diagsIncluded__C)
                  00018ba0    00000004     debug_pem4f.oem4f (.const:ti_sysbios_knl_Semaphore_Module__diagsMask__C)
                  00018ba4    00000004     debug_pem4f.oem4f (.const:ti_sysbios_knl_Semaphore_Module__loggerFxn2__C)
                  00018ba8    00000004     debug_pem4f.oem4f (.const:ti_sysbios_knl_Semaphore_Module__loggerFxn4__C)
                  00018bac    00000004     debug_pem4f.oem4f (.const:ti_sysbios_knl_Semaphore_Module__loggerObj__C)
                  00018bb0    00000004     debug_pem4f.oem4f (.const:ti_sysbios_knl_Swi_LD_end__C)
                  00018bb4    00000004     debug_pem4f.oem4f (.const:ti_sysbios_knl_Swi_LM_begin__C)
                  00018bb8    00000004     debug_pem4f.oem4f (.const:ti_sysbios_knl_Swi_LM_post__C)
                  00018bbc    00000004     debug_pem4f.oem4f (.const:ti_sysbios_knl_Swi_Module__diagsEnabled__C)
                  00018bc0    00000004     debug_pem4f.oem4f (.const:ti_sysbios_knl_Swi_Module__diagsIncluded__C)
                  00018bc4    00000004     debug_pem4f.oem4f (.const:ti_sysbios_knl_Swi_Module__diagsMask__C)
                  00018bc8    00000004     debug_pem4f.oem4f (.const:ti_sysbios_knl_Swi_Module__loggerFxn1__C)
                  00018bcc    00000004     debug_pem4f.oem4f (.const:ti_sysbios_knl_Swi_Module__loggerFxn4__C)
                  00018bd0    00000004     debug_pem4f.oem4f (.const:ti_sysbios_knl_Swi_Module__loggerObj__C)
                  00018bd4    00000004     debug_pem4f.oem4f (.const:ti_sysbios_knl_Swi_Object__count__C)
                  00018bd8    00000004     debug_pem4f.oem4f (.const:ti_sysbios_knl_Task_A_badPriority__C)
                  00018bdc    00000004     debug_pem4f.oem4f (.const:ti_sysbios_knl_Task_A_badTaskState__C)
                  00018be0    00000004     debug_pem4f.oem4f (.const:ti_sysbios_knl_Task_A_badThreadType__C)
                  00018be4    00000004     debug_pem4f.oem4f (.const:ti_sysbios_knl_Task_A_badTimeout__C)
                  00018be8    00000004     debug_pem4f.oem4f (.const:ti_sysbios_knl_Task_A_noPendElem__C)
                  00018bec    00000004     debug_pem4f.oem4f (.const:ti_sysbios_knl_Task_A_sleepTaskDisabled__C)
                  00018bf0    00000004     debug_pem4f.oem4f (.const:ti_sysbios_knl_Task_E_spOutOfBounds__C)
                  00018bf4    00000004     debug_pem4f.oem4f (.const:ti_sysbios_knl_Task_E_stackOverflow__C)
                  00018bf8    00000004     debug_pem4f.oem4f (.const:ti_sysbios_knl_Task_LD_block__C)
                  00018bfc    00000004     debug_pem4f.oem4f (.const:ti_sysbios_knl_Task_LD_exit__C)
                  00018c00    00000004     debug_pem4f.oem4f (.const:ti_sysbios_knl_Task_LD_ready__C)
                  00018c04    00000004     debug_pem4f.oem4f (.const:ti_sysbios_knl_Task_LM_sleep__C)
                  00018c08    00000004     debug_pem4f.oem4f (.const:ti_sysbios_knl_Task_LM_switch__C)
                  00018c0c    00000004     debug_pem4f.oem4f (.const:ti_sysbios_knl_Task_LM_yield__C)
                  00018c10    00000004     debug_pem4f.oem4f (.const:ti_sysbios_knl_Task_Module_State_inactiveQ__O)
                  00018c14    00000004     debug_pem4f.oem4f (.const:ti_sysbios_knl_Task_Module__diagsEnabled__C)
                  00018c18    00000004     debug_pem4f.oem4f (.const:ti_sysbios_knl_Task_Module__diagsIncluded__C)
                  00018c1c    00000004     debug_pem4f.oem4f (.const:ti_sysbios_knl_Task_Module__diagsMask__C)
                  00018c20    00000004     debug_pem4f.oem4f (.const:ti_sysbios_knl_Task_Module__loggerFxn2__C)
                  00018c24    00000004     debug_pem4f.oem4f (.const:ti_sysbios_knl_Task_Module__loggerFxn4__C)
                  00018c28    00000004     debug_pem4f.oem4f (.const:ti_sysbios_knl_Task_Module__loggerObj__C)
                  00018c2c    00000004     debug_pem4f.oem4f (.const:ti_sysbios_knl_Task_Object__count__C)
                  00018c30    00000004     debug_pem4f.oem4f (.const:ti_sysbios_knl_Task_Object__heap__C)
                  00018c34    00000004     debug_pem4f.oem4f (.const:ti_sysbios_knl_Task_allBlockedFunc__C)
                  00018c38    00000004     debug_pem4f.oem4f (.const:ti_sysbios_knl_Task_defaultStackHeap__C)
                  00018c3c    00000004     debug_pem4f.oem4f (.const:ti_sysbios_knl_Task_defaultStackSize__C)
                  00018c40    00000004     debug_pem4f.oem4f (.const:ti_sysbios_knl_Task_numConstructedTasks__C)
                  00018c44    00000004     debug_pem4f.oem4f (.const:ti_sysbios_knl_Task_numPriorities__C)
                  00018c48    00000004     debug_pem4f.oem4f (.const:ti_sysbios_rts_ti_ReentSupport_A_badThreadType__C)
                  00018c4c    00000004     debug_pem4f.oem4f (.const:ti_sysbios_rts_ti_ReentSupport_Module__diagsEnabled__C)
                  00018c50    00000004     debug_pem4f.oem4f (.const:ti_sysbios_rts_ti_ReentSupport_Module__diagsIncluded__C)
                  00018c54    00000004     debug_pem4f.oem4f (.const:ti_sysbios_rts_ti_ReentSupport_Module__diagsMask__C)
                  00018c58    00000004     debug_pem4f.oem4f (.const:ti_sysbios_utils_Load_LS_cpuLoad__C)
                  00018c5c    00000004     debug_pem4f.oem4f (.const:ti_sysbios_utils_Load_Module__diagsEnabled__C)
                  00018c60    00000004     debug_pem4f.oem4f (.const:ti_sysbios_utils_Load_Module__diagsIncluded__C)
                  00018c64    00000004     debug_pem4f.oem4f (.const:ti_sysbios_utils_Load_Module__diagsMask__C)
                  00018c68    00000004     debug_pem4f.oem4f (.const:ti_sysbios_utils_Load_Module__loggerFxn1__C)
                  00018c6c    00000004     debug_pem4f.oem4f (.const:ti_sysbios_utils_Load_Module__loggerObj__C)
                  00018c70    00000004     debug_pem4f.oem4f (.const:ti_sysbios_utils_Load_postUpdate__C)
                  00018c74    00000004     debug_pem4f.oem4f (.const:ti_sysbios_utils_Load_windowInMs__C)
                  00018c78    00000004     debug_pem4f.oem4f (.const:ti_uia_loggers_LoggerStopMode_Module__diagsEnabled__C)
                  00018c7c    00000004     debug_pem4f.oem4f (.const:ti_uia_loggers_LoggerStopMode_Module__diagsIncluded__C)
                  00018c80    00000004     debug_pem4f.oem4f (.const:ti_uia_loggers_LoggerStopMode_Module__diagsMask__C)
                  00018c84    00000004     debug_pem4f.oem4f (.const:ti_uia_loggers_LoggerStopMode_Object__count__C)
                  00018c88    00000004     debug_pem4f.oem4f (.const:ti_uia_runtime_ILoggerSnapshot_Interface__BASE__C)
                  00018c8c    00000004     debug_pem4f.oem4f (.const:ti_uia_runtime_IUIATransfer_Interface__BASE__C)
                  00018c90    00000004     debug_pem4f.oem4f (.const:xdc_runtime_Assert_E_assertFailed__C)
                  00018c94    00000004     debug_pem4f.oem4f (.const:xdc_runtime_Core_A_initializedParams__C)
                  00018c98    00000004     debug_pem4f.oem4f (.const:xdc_runtime_Core_Module__diagsEnabled__C)
                  00018c9c    00000004     debug_pem4f.oem4f (.const:xdc_runtime_Core_Module__diagsIncluded__C)
                  00018ca0    00000004     debug_pem4f.oem4f (.const:xdc_runtime_Core_Module__diagsMask__C)
                  00018ca4    00000004     debug_pem4f.oem4f (.const:xdc_runtime_Error_E_memory__C)
                  00018ca8    00000004     debug_pem4f.oem4f (.const:xdc_runtime_Error_policyFxn__C)
                  00018cac    00000004     debug_pem4f.oem4f (.const:xdc_runtime_Error_raiseHook__C)
                  00018cb0    00000004     debug_pem4f.oem4f (.const:xdc_runtime_IFilterLogger_Interface__BASE__C)
                  00018cb4    00000004     debug_pem4f.oem4f (.const:xdc_runtime_IGateProvider_Interface__BASE__C)
                  00018cb8    00000004     debug_pem4f.oem4f (.const:xdc_runtime_IHeap_Interface__BASE__C)
                  00018cbc    00000004     debug_pem4f.oem4f (.const:xdc_runtime_ILogger_Interface__BASE__C)
                  00018cc0    00000004     debug_pem4f.oem4f (.const:xdc_runtime_IModule_Interface__BASE__C)
                  00018cc4    00000004     debug_pem4f.oem4f (.const:xdc_runtime_Memory_defaultHeapInstance__C)
                  00018cc8    00000004     debug_pem4f.oem4f (.const:xdc_runtime_Startup_execImpl__C)
                  00018ccc    00000004     debug_pem4f.oem4f (.const:xdc_runtime_Startup_maxPasses__C)
                  00018cd0    00000004     debug_pem4f.oem4f (.const:xdc_runtime_Startup_sfxnRts__C)
                  00018cd4    00000004     debug_pem4f.oem4f (.const:xdc_runtime_Startup_sfxnTab__C)
                  00018cd8    00000004     debug_pem4f.oem4f (.const:xdc_runtime_SysMin_bufSize__C)
                  00018cdc    00000004     debug_pem4f.oem4f (.const:xdc_runtime_SysMin_outputFunc__C)
                  00018ce0    00000004     debug_pem4f.oem4f (.const:xdc_runtime_System_Module__gateObj__C)
                  00018ce4    00000004     debug_pem4f.oem4f (.const:xdc_runtime_System_abortFxn__C)
                  00018ce8    00000004     debug_pem4f.oem4f (.const:xdc_runtime_System_exitFxn__C)
                  00018cec    00000004     debug_pem4f.oem4f (.const:xdc_runtime_System_extendFxn__C)
                  00018cf0    00000004     debug_pem4f.oem4f (.const:xdc_runtime_System_maxAtexitHandlers__C)
                  00018cf4    00000004     debug_pem4f.oem4f (.const:xdc_runtime_Text_charTab__C)
                  00018cf8    00000004     debug_pem4f.oem4f (.const:xdc_runtime_Text_nodeTab__C)
                  00018cfc    00000004     debug_pem4f.oem4f (.const:xdc_runtime_Text_visitRopeFxn__C)
                  00018d00    00000003     ConnService.obj (.const:.string:_ZZN13TinyGsmSim8006sendATIJPKcEEEvDpT_Es_0)
                  00018d03    00000003     ConnService.obj (.const:.string:_ZZN13TinyGsmSim8006sendATIJPKcS2_S2_S2_S2_S2_S2_EEEvDpT_Es)
                  00018d06    00000003     ConnService.obj (.const:.string:_ZZN13TinyGsmSim8006sendATIJPKcS2_S2_S2_S2_S2_S2_EEEvDpT_Es_0)
                  00018d09    00000003     ConnService.obj (.const:.string:_ZZN13TinyGsmSim8006sendATIJPKcS2_cEEEvDpT_Es)
                  00018d0c    00000003     ConnService.obj (.const:.string:_ZZN13TinyGsmSim8006sendATIJPKcS2_cEEEvDpT_Es_0)
                  00018d0f    00000003     ConnService.obj (.const:.string:_ZZN13TinyGsmSim8006sendATIJPKcbEEEvDpT_Es)
                  00018d12    00000003     ConnService.obj (.const:.string:_ZZN13TinyGsmSim8006sendATIJPKcbEEEvDpT_Es_0)
                  00018d15    00000003     ConnService.obj (.const:.string:_ZZN13TinyGsmSim8006sendATIJPKchEEEvDpT_Es)
                  00018d18    00000003     ConnService.obj (.const:.string:_ZZN13TinyGsmSim8006sendATIJPKchEEEvDpT_Es_0)
                  00018d1b    00000003     ConnService.obj (.const:.string:_ZZN13TinyGsmSim8006sendATIJPKchS2_EEEvDpT_Es)
                  00018d1e    00000003     ConnService.obj (.const:.string:_ZZN13TinyGsmSim8006sendATIJPKchS2_EEEvDpT_Es_0)
                  00018d21    00000003     ConnService.obj (.const:.string:_ZZN13TinyGsmSim8006sendATIJPKchcS2_S2_S2_S2_tEEEvDpT_Es)
                  00018d24    00000003     ConnService.obj (.const:.string:_ZZN13TinyGsmSim8006sendATIJPKchcS2_S2_S2_S2_tEEEvDpT_Es_0)
                  00018d27    00000003     ConnService.obj (.const:.string:_ZZN13TinyGsmSim8006sendATIJPKchcjEEEvDpT_Es)
                  00018d2a    00000003     ConnService.obj (.const:.string:_ZZN13TinyGsmSim8006sendATIJPKchcjEEEvDpT_Es_0)
                  00018d2d    00000003     ConnService.obj (.const:.string:_ZZN13TinyGsmSim8009GsmClient4stopEvEs_0)
                  00018d30    00000002     debug_pem4f.oem4f (.const:ti_sysbios_family_arm_m3_Hwi_Module__loggerDefined__C)
                  00018d32    00000002     debug_pem4f.oem4f (.const:ti_sysbios_family_arm_m3_Timer_Module__id__C)
                  00018d34    00000002     debug_pem4f.oem4f (.const:ti_sysbios_family_arm_msp432_init_Boot_bypassHFXT__C)
                  00018d36    00000002     debug_pem4f.oem4f (.const:ti_sysbios_family_arm_msp432_init_Boot_bypassLFXT__C)
                  00018d38    00000002     debug_pem4f.oem4f (.const:ti_sysbios_family_arm_msp432_init_Boot_enableHFXT__C)
                  00018d3a    00000002     debug_pem4f.oem4f (.const:ti_sysbios_family_arm_msp432_init_Boot_enableLFXT__C)
                  00018d3c    00000002     debug_pem4f.oem4f (.const:ti_sysbios_gates_GateMutex_Module__id__C)
                  00018d3e    00000002     debug_pem4f.oem4f (.const:ti_sysbios_hal_Hwi_Module__id__C)
                  00018d40    00000002     debug_pem4f.oem4f (.const:ti_sysbios_heaps_HeapMem_Module__id__C)
                  00018d42    00000002     debug_pem4f.oem4f (.const:ti_sysbios_heaps_HeapTrack_Module__id__C)
                  00018d44    00000002     debug_pem4f.oem4f (.const:ti_sysbios_knl_Clock_Module__id__C)
                  00018d46    00000002     debug_pem4f.oem4f (.const:ti_sysbios_knl_Clock_Module__loggerDefined__C)
                  00018d48    00000002     debug_pem4f.oem4f (.const:ti_sysbios_knl_Semaphore_Module__id__C)
                  00018d4a    00000002     debug_pem4f.oem4f (.const:ti_sysbios_knl_Semaphore_Module__loggerDefined__C)
                  00018d4c    00000002     debug_pem4f.oem4f (.const:ti_sysbios_knl_Swi_Module__id__C)
                  00018d4e    00000002     debug_pem4f.oem4f (.const:ti_sysbios_knl_Swi_Module__loggerDefined__C)
                  00018d50    00000002     debug_pem4f.oem4f (.const:ti_sysbios_knl_Task_Module__id__C)
                  00018d52    00000002     debug_pem4f.oem4f (.const:ti_sysbios_knl_Task_Module__loggerDefined__C)
                  00018d54    00000002     debug_pem4f.oem4f (.const:ti_sysbios_rts_ti_ReentSupport_Module__id__C)
                  00018d56    00000002     debug_pem4f.oem4f (.const:ti_sysbios_utils_Load_Module__id__C)
                  00018d58    00000002     debug_pem4f.oem4f (.const:ti_sysbios_utils_Load_Module__loggerDefined__C)
                  00018d5a    00000002     debug_pem4f.oem4f (.const:ti_sysbios_utils_Load_updateInIdle__C)
                  00018d5c    00000002     debug_pem4f.oem4f (.const:ti_uia_loggers_LoggerStopMode_Module__id__C)
                  00018d5e    00000002     debug_pem4f.oem4f (.const:ti_uia_loggers_LoggerStopMode_isTimestampEnabled__C)
                  00018d60    00000002     debug_pem4f.oem4f (.const:xdc_runtime_Core_Module__id__C)
                  00018d62    00000002     debug_pem4f.oem4f (.const:xdc_runtime_Error_Module__loggerDefined__C)
                  00018d64    00000002     debug_pem4f.oem4f (.const:xdc_runtime_Error_maxDepth__C)
                  00018d66    00000002     debug_pem4f.oem4f (.const:xdc_runtime_Memory_Module__id__C)
                  00018d68    00000002     debug_pem4f.oem4f (.const:xdc_runtime_SysMin_flushAtExit__C)
                  00018d6a    00000002     debug_pem4f.oem4f (.const:xdc_runtime_Text_isLoaded__C)
                  00018d6c    00000002     debug_pem4f.oem4f (.const:xdc_runtime_Text_registryModsLastId__C)
                  00018d6e    00000002     debug_pem4f.oem4f (.const:xdc_runtime_Text_unnamedModsLastId__C)
                  00018d70    00000001     debug_pem4f.oem4f (.const:xdc_runtime_Error_policy__C)

.cinit     0    00018d88    000004f8     
                  00018d88    000004d2     (.cinit..data.load) [load image, compression = lzss]
                  0001925a    00000002     --HOLE-- [fill = 0]
                  0001925c    0000000c     (__TI_handler_table)
                  00019268    00000008     (.cinit..bss.load) [load image, compression = zero_init]
                  00019270    00000010     (__TI_cinit_table)

.init_array 
*          0    00018d74    00000010     
                  00018d74    00000004     EnergiaCoreMSP432.lib : SerialObjects.obj (.init_array)
                  00018d78    00000004                           : IPAddress.obj (.init_array)
                  00018d7c    00000004     ConnService.obj (.init_array)
                  00018d80    00000004     Airio.obj (.init_array)

.bss       0    20008180    00002730     UNINITIALIZED
                  20008180    00000800     (.common:uartMSP432RingBuffer1)
                  20008980    00000400     (.common:ti_uia_loggers_LoggerStopMode_Instance_State_2_packetArray__A)
                  20008d80    00000400     (.common:xdc_runtime_SysMin_Module_State_0_outbuf__A)
                  20009180    00000214     Airio.obj (.bss:myTransfer)
                  20009394    00000004     drivers_msp432p401x.aem4f : GPIOMSP432.oem4f (.bss)
                  20009398    00000200     debug_pem4f.oem4f (.bss:taskStackSection)
                  20009598    00000068     ConnService.obj (.bss:client)
                  20009600    00000200     (.common:ti_uia_loggers_LoggerStopMode_Instance_State_1_packetArray__A)
                  20009800    00000200     (.common:uartMSP432Objects)
                  20009a00    00000164     EnergiaCoreMSP432.lib : SerialObjects.obj (.bss:Serial1)
                  20009b64    00000164                           : SerialObjects.obj (.bss:Serial2)
                  20009cc8    00000164                           : SerialObjects.obj (.bss:Serial3)
                  20009e2c    00000164                           : SerialObjects.obj (.bss:Serial)
                  20009f90    00000140     (.common:ti_sysbios_family_arm_m3_Hwi_dispatchTable)
                  2000a0d0    00000120     rtsv7M4_T_le_v4SPD16_eabi.lib : trgmsg.c.obj (.bss:_CIOBUF_)
                  2000a1f0    0000000c     Airio.obj (.bss:Data_GPS)
                  2000a1fc    00000004     drivers_msp432p401x.aem4f : TimerMSP432.oem4f (.bss:timerState)
                  2000a200    00000100     (.common:ti_uia_loggers_LoggerStopMode_Instance_State_0_packetArray__A)
                  2000a300    000000d8     Airio.obj (.bss:gps)
                  2000a3d8    00000090     (.common:pwmTimerMSP432Objects)
                  2000a468    00000080     (.common:uartMSP432RingBuffer0)
                  2000a4e8    00000080     (.common:uartMSP432RingBuffer2)
                  2000a568    00000080     (.common:uartMSP432RingBuffer3)
                  2000a5e8    00000070     Airio.obj (.bss:connection)
                  2000a658    0000005c     ConnService.obj (.bss:buffer$1)
                  2000a6b4    00000030     drivers_msp432p401x.aem4f : GPIOMSP432.oem4f (.bss:gpioCallbackInfo)
                  2000a6e4    00000030     Airio.obj (.bss:sBoardData)
                  2000a714    00000030     (.common:adcMSP432Objects)
                  2000a744    00000018     ConnService.obj (.bss:modem)
                  2000a75c    0000000c     (.common:watchdogMSP432Objects)
                  2000a768    00000008     EnergiaCoreMSP432.lib : IPAddress.obj (.bss:INADDR_NONE)
                  2000a770    00000008     msp432p4xx_driverlib.lib : cs.o (.bss)
                  2000a778    00000008     (.common:parmbuf)
                  2000a780    00000030     (.common:ti_uia_loggers_LoggerStopMode_Instance_State_0_hdr__A)
                  2000a7b0    00000004     (.common:ClockP_tickPeriod)
                  2000a7b4    00000004     (.common:__dso_handle)
                  2000a7b8    00000004     (.common:ti_sysbios_knl_Task_Instance_State_0_hookEnv__A)
                  2000a7bc    00000001     EnergiaCoreMSP432.lib : WString.obj (.bss)
                  2000a7bd    00000043     --HOLE--
                  2000a800    00000030     (.common:ti_uia_loggers_LoggerStopMode_Instance_State_1_hdr__A)
                  2000a830    00000050     --HOLE--
                  2000a880    00000030     (.common:ti_uia_loggers_LoggerStopMode_Instance_State_2_hdr__A)

.data      0    2000a8b0    00000ebf     UNINITIALIZED
                  2000a8b0    00000180     EnergiaCoreMSP432.lib : Board_init.obj (.data:adcMSP432HWAttrs)
                  2000aa30    00000148                           : Board_init.obj (.data:gpioCallbackFunctions)
                  2000ab78    00000148                           : Board_init.obj (.data:gpioPinConfigs)
                  2000acc0    00000140     drivers_msp432p401x.aem4f : PowerMSP432.oem4f (.data:PowerMSP432_perfLevels)
                  2000ae00    00000110                               : PWMTimerMSP432.oem4f (.data:pwmTimerStatus)
                  2000af10    0000009c     debug_pem4f.oem4f (.data:ti_uia_loggers_LoggerStopMode_Object__table__V)
                  2000afac    00000098     debug_pem4f.oem4f (.data:ti_sysbios_utils_Load_Module__state__V)
                  2000b044    00000088     sysbios.aem4f : BIOS.obj (.data:$O1$$)
                  2000b0cc    00000080     debug_pem4f.oem4f (.data:ti_sysbios_knl_Swi_Module_State_0_readyQ__A)
                  2000b14c    00000080     debug_pem4f.oem4f (.data:ti_sysbios_knl_Task_Module_State_0_readyQ__A)
                  2000b1cc    00000060     EnergiaCoreMSP432.lib : Board_init.obj (.data:pwmTimerMSP432HWAttrs)
                  2000b22c    00000054     debug_pem4f.oem4f (.data:ti_sysbios_gates_GateMutex_Object__table__V)
                  2000b280    00000052     EnergiaCoreMSP432.lib : pins.obj (.data:digital_pin_to_pin_function)
                  2000b2d2    00000052                           : pins.obj (.data:digital_pin_to_pwm_index)
                  2000b324    0000004c     debug_pem4f.oem4f (.data:ti_sysbios_knl_Task_Object__table__V)
                  2000b370    00000044     debug_pem4f.oem4f (.data:ti_sysbios_family_arm_msp432_Timer_Object__table__V)
                  2000b3b4    00000044     debug_pem4f.oem4f (.data:ti_sysbios_knl_Task_Module__state__V)
                  2000b3f8    00000034     debug_pem4f.oem4f (.data:ti_sysbios_family_arm_m3_Hwi_Module__state__V)
                  2000b42c    00000030     debug_pem4f.oem4f (.data:ti_sysbios_family_arm_m3_Hwi_Object__table__V)
                  2000b45c    00000030     debug_pem4f.oem4f (.data:ti_sysbios_family_arm_m3_Timer_Object__table__V)
                  2000b48c    00000030     debug_pem4f.oem4f (.data:ti_sysbios_knl_Swi_Object__table__V)
                  2000b4bc    0000002c     drivers_msp432p401x.aem4f : PowerMSP432.oem4f (.data:PowerMSP432_module)
                  2000b4e8    0000002c     debug_pem4f.oem4f (.data:ti_sysbios_knl_Clock_Module__state__V)
                  2000b514    00000024     debug_pem4f.oem4f (.data:ti_sysbios_BIOS_Module__state__V)
                  2000b538    00000020     EnergiaCoreMSP432.lib : wiring_analog.obj (.data:mapped_pwm_pin_ccrs)
                  2000b558    00000020     debug_pem4f.oem4f (.data:ti_sysbios_family_arm_msp432_Timer_Module_State_0_device__A)
                  2000b578    00000020     debug_pem4f.oem4f (.data:ti_sysbios_heaps_HeapTrack_Object__table__V)
                  2000b598    00000020     debug_pem4f.oem4f (.data:xdc_runtime_Error_IgnoreBlock)
                  2000b5b8    0000001c     debug_pem4f.oem4f (.data:ti_sysbios_knl_Swi_Module__state__V)
                  2000b5d4    00000018     debug_pem4f.oem4f (.data:ti_sysbios_heaps_HeapMem_Object__table__V)
                  2000b5ec    00000018     EnergiaCoreMSP432.lib : wiring_analog.obj (.data:used_pwm_port_pins)
                  2000b604    00000010     rtsv7M4_T_le_v4SPD16_eabi.lib : tmzone.c.obj (.data:_tz)
                  2000b614    00000010     EnergiaCoreMSP432.lib : wiring_analog.obj (.data:fixed_map_pwm_pins)
                  2000b624    00000010     debug_pem4f.oem4f (.data:ti_sysbios_family_arm_msp432_Timer_Module_State_0_handles__A)
                  2000b634    0000000c     rtsv7M4_T_le_v4SPD16_eabi.lib : exit.c.obj (.data:$O1$$)
                  2000b640    0000000c     HttpClient.obj (.data)
                  2000b64c    0000000c     debug_pem4f.oem4f (.data:ti_sysbios_family_arm_m3_Timer_Module__state__V)
                  2000b658    0000000c     debug_pem4f.oem4f (.data:ti_sysbios_family_arm_msp432_ClockFreqs_Module__state__V)
                  2000b664    0000000c     debug_pem4f.oem4f (.data:ti_sysbios_family_arm_msp432_Timer_Module__state__V)
                  2000b670    0000000c     debug_pem4f.oem4f (.data:ti_sysbios_knl_Task_Module__root__V)
                  2000b67c    0000000c     debug_pem4f.oem4f (.data:ti_uia_runtime_QueueDescriptor_Module__state__V)
                  2000b688    0000000c     debug_pem4f.oem4f (.data:xdc_runtime_SysMin_Module__state__V)
                  2000b694    00000009     EnergiaCoreMSP432.lib : wiring_analog.obj (.data)
                  2000b69d    00000002     drivers_msp432p401x.aem4f : GPIOMSP432.oem4f (.data)
                  2000b69f    00000001     Airio.obj (.data)
                  2000b6a0    00000008     rtsv7M4_T_le_v4SPD16_eabi.lib : _lock.c.obj (.data:$O1$$)
                  2000b6a8    00000008     EnergiaCoreMSP432.lib : wiring.obj (.data)
                  2000b6b0    00000008     drivers_msp432p401x.aem4f : ADCMSP432.oem4f (.data)
                  2000b6b8    00000008     main.obj (.data:func_ptr)
                  2000b6c0    00000008     ti.uia.runtime.aem4f : QueueDescriptor.oem4f (.data)
                  2000b6c8    00000008     debug_pem4f.oem4f (.data:ti_sysbios_family_arm_m3_Hwi_Module__root__V)
                  2000b6d0    00000008     debug_pem4f.oem4f (.data:ti_sysbios_gates_GateHwi_Module__root__V)
                  2000b6d8    00000008     debug_pem4f.oem4f (.data:ti_sysbios_gates_GateMutex_Module__root__V)
                  2000b6e0    00000008     debug_pem4f.oem4f (.data:ti_sysbios_heaps_HeapMem_Module__root__V)
                  2000b6e8    00000008     debug_pem4f.oem4f (.data:ti_sysbios_heaps_HeapTrack_Module__root__V)
                  2000b6f0    00000008     debug_pem4f.oem4f (.data:ti_sysbios_knl_Clock_Module__root__V)
                  2000b6f8    00000008     debug_pem4f.oem4f (.data:ti_sysbios_knl_Queue_Module__root__V)
                  2000b700    00000008     debug_pem4f.oem4f (.data:ti_sysbios_knl_Semaphore_Module__root__V)
                  2000b708    00000008     debug_pem4f.oem4f (.data:ti_uia_loggers_LoggerStopMode_Module__root__V)
                  2000b710    00000008     debug_pem4f.oem4f (.data:xdc_runtime_Registry_Module__state__V)
                  2000b718    00000008     debug_pem4f.oem4f (.data:xdc_runtime_Startup_Module__state__V)
                  2000b720    00000008     debug_pem4f.oem4f (.data:xdc_runtime_System_Module_State_0_atexitHandlers__A)
                  2000b728    00000008     debug_pem4f.oem4f (.data:xdc_runtime_System_Module__state__V)
                  2000b730    00000004     MainBoard.obj (.data:board)
                  2000b734    00000004     rtsv7M4_T_le_v4SPD16_eabi.lib : dtor_list.c.obj (.data)
                  2000b738    00000004                                   : stkdepth_vars.c.obj (.data)
                  2000b73c    00000004     main.obj (.data:taskNames)
                  2000b740    00000004     debug_pem4f.oem4f (.data:ti_sysbios_family_arm_m3_Hwi_Module_State_0_excContext__A)
                  2000b744    00000004     debug_pem4f.oem4f (.data:ti_sysbios_family_arm_m3_Hwi_Module_State_0_excStack__A)
                  2000b748    00000004     debug_pem4f.oem4f (.data:ti_sysbios_family_arm_m3_TimestampProvider_Module__state__V)
                  2000b74c    00000004     debug_pem4f.oem4f (.data:ti_sysbios_gates_GateHwi_Object__table__V)
                  2000b750    00000004     debug_pem4f.oem4f (.data:ti_sysbios_knl_Task_Module_State_0_idleTask__A)
                  2000b754    00000004     debug_pem4f.oem4f (.data:ti_sysbios_rts_ti_ReentSupport_Module__state__V)
                  2000b758    00000004     debug_pem4f.oem4f (.data:ti_sysbios_utils_Load_Module_State_0_runningTask__A)
                  2000b75c    00000004     debug_pem4f.oem4f (.data:ti_sysbios_utils_Load_Module_State_0_taskStartTime__A)
                  2000b760    00000004     EnergiaCoreMSP432.lib : wiring_analog.obj (.data:timer_ccrs_in_use)
                  2000b764    00000004     debug_pem4f.oem4f (.data:xdc_runtime_Memory_Module__state__V)
                  2000b768    00000002     debug_pem4f.oem4f (.data:ti_sysbios_family_arm_m3_Hwi_Module_State_0_excActive__A)
                  2000b76a    00000002     debug_pem4f.oem4f (.data:xdc_runtime_Error_Module__state__V)
                  2000b76c    00000001     drivers_msp432p401x.aem4f : PWM.oem4f (.data)
                  2000b76d    00000001                               : UART.oem4f (.data)
                  2000b76e    00000001                               : Watchdog.oem4f (.data)

.priheap   0    20000140    00008000     UNINITIALIZED
                  20000140    00008000     --HOLE--

.stack     0    2000fc00    00000400     UNINITIALIZED
                  2000fc00    00000400     --HOLE--

.bootVecs 
*          0    00000000    00000008     DSECT
                  00000000    00000008     boot.aem4f : boot.oem4f (.bootVecs)

.resetVecs 
*          0    00000000    0000003c     
                  00000000    0000003c     debug_pem4f.oem4f (.resetVecs)

.vecs      0    20000000    00000140     NOLOAD SECTION
                  20000000    00000140     debug_pem4f.oem4f (.vecs)

xdc.meta   0    00000000    00000102     COPY SECTION
                  00000000    00000102     debug_pem4f.oem4f (xdc.meta)

__llvm_prf_cnts 
*          0    20000000    00000000     UNINITIALIZED

.binit     0    00000000    00000000     

MODULE SUMMARY

       Module                       code    ro data   rw data
       ------                       ----    -------   -------
    .\01_Applications\
       Airio.obj                    1278    4         1842   
       main.obj                     194     6         24     
    +--+----------------------------+-------+---------+---------+
       Total:                       1472    10        1866   
                                                             
    .\03_Services\01_Connectivity\
       ConnService.obj              11540   1010      440    
    +--+----------------------------+-------+---------+---------+
       Total:                       11540   1010      440    
                                                             
    .\04_Utils\
       Utils.obj                    315     0         0      
    +--+----------------------------+-------+---------+---------+
       Total:                       315     0         0      
                                                             
    .\06_Board\
       MainBoard.obj                1032    47        8      
    +--+----------------------------+-------+---------+---------+
       Total:                       1032    47        8      
                                                             
    .\07_Arduino\HttpClient\
       HttpClient.obj               3439    161       24     
    +--+----------------------------+-------+---------+---------+
       Total:                       3439    161       24     
                                                             
    .\07_Arduino\SerialTransfer\
       SerialTransfer.obj           774     0         0      
    +--+----------------------------+-------+---------+---------+
       Total:                       774     0         0      
                                                             
    .\07_Arduino\TinyGPS\
       TinyGPS++.obj                2548    0         0      
    +--+----------------------------+-------+---------+---------+
       Total:                       2548    0         0      
                                                             
    E:\Intership\Other_projects\MsysCode\tirtos_builds_MSP_EXP432P401R_debug_ccs\Debug\configPkg\package\cfg\
       debug_pem4f.oem4f            4392    10475     11264  
    +--+----------------------------+-------+---------+---------+
       Total:                       4392    10475     11264  
                                                             
    C:/ti/simplelink_msp432p4_sdk_3_40_01_02/kernel/tirtos/packages/ti/dpl/lib/dpl_msp432p401x.aem4f
       SemaphoreP_tirtos.oem4f      146     0         0      
       PowerMSP432_tirtos.oem4f     142     0         0      
       ClockP_tirtos.oem4f          114     0         8      
       HwiP_tirtos.oem4f            96      0         0      
    +--+----------------------------+-------+---------+---------+
       Total:                       498     0         8      
                                                             
    C:/ti/simplelink_msp432p4_sdk_3_40_01_02/source/ti/devices/msp432p4xx/driverlib/ccs/msp432p4xx_driverlib.lib
       pcm.o                        1770    0         0      
       cs.o                         704     0         16     
       adc14.o                      588     128       0      
       uart.o                       284     0         0      
       sysctl.o                     144     0         0      
       sysctl_a.o                   64      0         0      
       rtc_c.o                      44      0         0      
       wdt_a.o                      36      0         0      
       cpu.o                        28      0         0      
    +--+----------------------------+-------+---------+---------+
       Total:                       3662    128       16     
                                                             
    C:/ti/simplelink_msp432p4_sdk_3_40_01_02/source/ti/drivers/lib/drivers_msp432p401x.aem4f
       PowerMSP432.oem4f            2196    0         728    
       UARTMSP432.oem4f             2840    41        0      
       PWMTimerMSP432.oem4f         1704    16        544    
       GPIOMSP432.oem4f             860     12        108    
       ADCMSP432.oem4f              594     0         16     
       WatchdogMSP432.oem4f         274     28        0      
       UART.oem4f                   196     36        2      
       TimerMSP432.oem4f            204     0         8      
       PWM.oem4f                    182     24        2      
       RingBuf.oem4f                184     0         0      
       List.oem4f                   76      0         0      
       Watchdog.oem4f               68      0         2      
       ADC.oem4f                    10      0         0      
    +--+----------------------------+-------+---------+---------+
       Total:                       9388    157       1410   
                                                             
    C:\ti\ccs1010\ccs\tools\compiler\ti-cgt-arm_20.2.1.LTS\lib\rtsv7M4_T_le_v4SPD16_eabi.lib
       _printfi.c.obj               4851    0         0      
       e_pow.c.obj                  2496    48        0      
       mktime.c.obj                 672     96        0      
       trgmsg.c.obj                 108     0         576    
       fd_add_t2.asm.obj            438     0         0      
       e_sqrt.c.obj                 344     0         0      
       fd_div_t2.asm.obj            310     0         0      
       strtol.c.obj                 304     0         0      
       s_scalbn.c.obj               272     0         0      
       fd_cmp_t2.asm.obj            268     0         0      
       ctype.c.obj                  0       257       0      
       fd_mul_t2.asm.obj            252     0         0      
       dtor_list.c.obj              204     0         16     
       typeinfo.c.obj               36      127       0      
       memcpy_t2.asm.obj            156     0         0      
       ull_div_t2.asm.obj           150     0         0      
       memset_t2.asm.obj            122     0         0      
       fd_tos_t2.asm.obj            110     0         0      
       ll_div_t2.asm.obj            110     0         0      
       copy_decompress_lzss.c.obj   104     0         0      
       exit.c.obj                   76      0         24     
       s_frexp.c.obj                100     0         0      
       sprintf.c.obj                98      0         0      
       hostwrite.c.obj              88      0         0      
       _ltoa.c.obj                  84      0         0      
       atoi.c.obj                   76      0         0      
       atol.c.obj                   76      0         0      
       cpy_tbl.c.obj                76      0         0      
       fd_toi_t2.asm.obj            72      0         0      
       fd_tou_t2.asm.obj            68      0         0      
       u_divt2.asm.obj              64      0         0      
       fs_tod_t2.asm.obj            56      0         0      
       strncpy.c.obj                54      0         0      
       strstr.c.obj                 52      0         0      
       i_tofd_t2.asm.obj            46      0         0      
       strncmp.c.obj                44      0         0      
       _lock.c.obj                  26      0         16     
       memmov.c.obj                 40      0         0      
       memcmp.c.obj                 36      0         0      
       tmzone.c.obj                 0       0         32     
       u_tofd_t2.asm.obj            32      0         0      
       memccpy.c.obj                28      0         0      
       s_copysign.c.obj             26      0         0      
       args_main.c.obj              24      0         0      
       ll_mul_t2.asm.obj            24      0         0      
       strcmp.c.obj                 24      0         0      
       strrchr.c.obj                24      0         0      
       stdlib_typeinfo.cpp.obj      2       21        0      
       strchr.c.obj                 22      0         0      
       strcpy.c.obj                 20      0         0      
       strlen.c.obj                 20      0         0      
       wcslen.c.obj                 18      0         0      
       hostopen.c.obj               0       0         16     
       isdigit.c.obj                16      0         0      
       isspace.c.obj                16      0         0      
       isxdigit.c.obj               16      0         0      
       tolower.c.obj                16      0         0      
       toupper.c.obj                16      0         0      
       copy_decompress_none.c.obj   14      0         0      
       copy_zero_init.c.obj         12      0         0      
       stkdepth_vars.c.obj          0       0         8      
       new.cpp.obj                  4       0         0      
       div0.asm.obj                 2       0         0      
    +--+----------------------------+-------+---------+---------+
       Total:                       12915   549       688    
                                                             
    C:\ti\simplelink_msp432p4_sdk_3_40_01_02\kernel\tirtos\packages\ti\targets\arm\rtsarm\lib\auto_init.aem4f
       auto_init.oem4f              160     0         0      
    +--+----------------------------+-------+---------+---------+
       Total:                       160     0         0      
                                                             
    C:\ti\simplelink_msp432p4_sdk_3_40_01_02\kernel\tirtos\packages\ti\targets\arm\rtsarm\lib\boot.aem4f
       boot.oem4f                   88      0         0      
    +--+----------------------------+-------+---------+---------+
       Total:                       88      0         0      
                                                             
    C:\ti\simplelink_msp432p4_sdk_3_40_01_02\kernel\tirtos\packages\ti\uia\loggers\lib\release\ti.uia.loggers.aem4f
       LoggerStopMode.oem4f         552     0         0      
    +--+----------------------------+-------+---------+---------+
       Total:                       552     0         0      
                                                             
    C:\ti\simplelink_msp432p4_sdk_3_40_01_02\kernel\tirtos\packages\ti\uia\runtime\lib\release\ti.uia.runtime.aem4f
       QueueDescriptor.oem4f        116     0         16     
    +--+----------------------------+-------+---------+---------+
       Total:                       116     0         16     
                                                             
    E:/Intership/Other_projects/MsysCode/EnergiaCoreMSP432/Debug/EnergiaCoreMSP432.lib
       Board_init.obj               416     1291      8568   
       WString.obj                  3802    0         2      
       SerialObjects.obj            276     4         2848   
       HardwareSerial.obj           1704    61        0      
       wiring_analog.obj            1148    8         170    
       Print.obj                    1270    31        0      
       Stream.obj                   1224    0         0      
       wiring.obj                   576     0         16     
       IPAddress.obj                396     39        16     
       pins.obj                     0       82        328    
       itoa.obj                     402     0         0      
       wiring_digital.obj           316     0         0      
       new.obj                      126     0         0      
    +--+----------------------------+-------+---------+---------+
       Total:                       11656   1516      11948  
                                                             
    E:\Intership\Other_projects\MsysCode\tirtos_builds_MSP_EXP432P401R_debug_ccs\src\sysbios\sysbios.aem4f
       BIOS.obj                     22198   0         272    
       m3_Hwi_asm.obj               318     0         0      
       m3_TaskSupport_asm.obj       180     0         0      
       m3_Hwi_asm_switch.obj        118     0         0      
    +--+----------------------------+-------+---------+---------+
       Total:                       22814   0         272    
                                                             
       Stack:                       0       0         2048   
       Linker Generated:            0       1270      0      
    +--+----------------------------+-------+---------+---------+
       Grand Total:                 87361   15323     30008  


LINKER GENERATED COPY TABLES

__TI_cinit_table @ 00019270 records: 2, size/record: 8, table size: 16
	.data: load addr=00018d88, load size=000004d2 bytes, run addr=2000a8b0, run size=00000ebf bytes, compression=lzss
	.bss: load addr=00019268, load size=00000008 bytes, run addr=20008180, run size=00002730 bytes, compression=zero_init


LINKER GENERATED HANDLER TABLE

__TI_handler_table @ 0001925c records: 3, size/record: 4, table size: 12
	index: 0, handler: __TI_decompress_lzss
	index: 1, handler: __TI_decompress_none
	index: 2, handler: __TI_zero_init


GLOBAL SYMBOLS: SORTED ALPHABETICALLY BY Name 

address   name                                                                                                                                                  
-------   ----                                                                                                                                                  
0000d145  ADC14_configureConversionMemory                                                                                                                       
00013c19  ADC14_getResult                                                                                                                                       
000123e9  ADCMSP432_close                                                                                                                                       
0000b9cd  ADCMSP432_convert                                                                                                                                     
000130d5  ADCMSP432_init                                                                                                                                        
0000ed71  ADCMSP432_open                                                                                                                                        
0001559d  ADC_close                                                                                                                                             
000178c8  ADC_config                                                                                                                                            
00018a0f  ADC_count                                                                                                                                             
00008a2f  Board_init                                                                                                                                            
0000892d  Board_initGPIO                                                                                                                                        
00008925  Board_initGeneral                                                                                                                                     
00008a1f  Board_initPWM                                                                                                                                         
00008a17  Board_initPower                                                                                                                                       
00008a27  Board_initWatchdog                                                                                                                                    
0000b155  C$$EXIT                                                                                                                                               
00012a1f  C$$IO$$                                                                                                                                               
000153bf  CPU_cpsid                                                                                                                                             
000153cb  CPU_cpsie                                                                                                                                             
00004165  CPU_wfi                                                                                                                                               
00014329  CS_setExternalClockSourceFrequency                                                                                                                    
0000bf8d  CS_startHFXTWithTimeout                                                                                                                               
0000c239  CS_startLFXTWithTimeout                                                                                                                               
000155a7  ClockP_Params_init                                                                                                                                    
00011501  ClockP_create                                                                                                                                         
000153d7  ClockP_delete                                                                                                                                         
00015521  ClockP_getSystemTicks                                                                                                                                 
00006a6d  ClockP_setTimeout                                                                                                                                     
00007bd5  ClockP_start                                                                                                                                          
000081c5  ClockP_stop                                                                                                                                           
2000a7b0  ClockP_tickPeriod                                                                                                                                     
0001861c  GPIOMSP432_config                                                                                                                                     
0001026d  GPIO_hwiIntFxn                                                                                                                                        
0000d849  GPIO_init                                                                                                                                             
00014349  GPIO_read                                                                                                                                             
0001080d  GPIO_setCallback                                                                                                                                      
00008f39  GPIO_setConfig                                                                                                                                        
00010d99  GPIO_write                                                                                                                                            
00008000  HEAPSIZE                                                                                                                                              
00010df1  HOSTwrite                                                                                                                                             
000150a9  HwiP_Params_init                                                                                                                                      
00012429  HwiP_create                                                                                                                                           
000153e3  HwiP_delete                                                                                                                                           
0000978d  HwiP_disable                                                                                                                                          
00015661  HwiP_restore                                                                                                                                          
00018a10  I2C_count                                                                                                                                             
2000a768  INADDR_NONE                                                                                                                                           
00013e71  List_put                                                                                                                                              
00013e97  List_remove                                                                                                                                           
00010ab1  PCM_getCoreVoltageLevel                                                                                                                               
00010c2d  PCM_getPowerMode                                                                                                                                      
00014dad  PCM_getPowerState                                                                                                                                     
00013c41  PCM_gotoLPM0                                                                                                                                          
0000f365  PCM_gotoLPM3                                                                                                                                          
000150b9  PCM_gotoLPM4                                                                                                                                          
000150c9  PCM_setPowerMode                                                                                                                                      
000150d9  PCM_setPowerState                                                                                                                                     
00011161  PCM_shutdownDevice                                                                                                                                    
0000f035  PWMTimerMSP432_close                                                                                                                                  
00000eff  PWMTimerMSP432_init                                                                                                                                   
000079cd  PWMTimerMSP432_open                                                                                                                                   
0000e7ad  PWMTimerMSP432_setDuty                                                                                                                                
0000f3e9  PWMTimerMSP432_start                                                                                                                                  
0000def1  PWMTimerMSP432_stop                                                                                                                                   
00014dc1  PWM_Params_init                                                                                                                                       
000155b1  PWM_close                                                                                                                                             
00017cb4  PWM_config                                                                                                                                            
00018a11  PWM_count                                                                                                                                             
00018578  PWM_defaultParams                                                                                                                                     
00011f9d  PWM_init                                                                                                                                              
00012469  PWM_open                                                                                                                                              
000155bb  PWM_setDuty                                                                                                                                           
000155c5  PWM_start                                                                                                                                             
00018028  PowerMSP432_config                                                                                                                                    
0001086d  PowerMSP432_deepSleepPolicy                                                                                                                           
000102d5  PowerMSP432_getFreqs                                                                                                                                  
000150e9  PowerMSP432_getNumPerfLevels                                                                                                                          
0000194f  PowerMSP432_initPolicy                                                                                                                                
2000b4bc  PowerMSP432_module                                                                                                                                    
2000acc0  PowerMSP432_perfLevels                                                                                                                                
0001363b  PowerMSP432_updateFreqs                                                                                                                               
000153f1  Power_getConstraintMask                                                                                                                               
000153fd  Power_getPerformanceLevel                                                                                                                             
00014dd5  Power_idleFunc                                                                                                                                        
0000e40d  Power_init                                                                                                                                            
00013c69  Power_registerNotify                                                                                                                                  
00011b21  Power_releaseConstraint                                                                                                                               
00012911  Power_setConstraint                                                                                                                                   
00004cc1  Power_sleep                                                                                                                                           
00014369  Power_unregisterNotify                                                                                                                                
00013669  RTC_C_holdClock                                                                                                                                       
00014f41  RingBuf_construct                                                                                                                                     
000124a9  RingBuf_get                                                                                                                                           
00014389  RingBuf_peek                                                                                                                                          
00011e81  RingBuf_put                                                                                                                                           
00018d74  SHT$$INIT_ARRAY$$Base                                                                                                                                 
00018d84  SHT$$INIT_ARRAY$$Limit                                                                                                                                
00018a12  SPI_count                                                                                                                                             
0001561f  SemaphoreP_Params_init                                                                                                                                
00012725  SemaphoreP_create                                                                                                                                     
00013695  SemaphoreP_createBinary                                                                                                                               
00015409  SemaphoreP_delete                                                                                                                                     
00014f53  SemaphoreP_pend                                                                                                                                       
00009ce5  SemaphoreP_post                                                                                                                                       
20009e2c  Serial                                                                                                                                                
20009a00  Serial1                                                                                                                                               
20009b64  Serial2                                                                                                                                               
20009cc8  Serial3                                                                                                                                               
00014a05  SysCtl_A_disableNMISource                                                                                                                             
00014a1d  SysCtl_A_enableNMISource                                                                                                                              
000150f9  SysCtl_A_getNMISourceStatus                                                                                                                           
00015109  SysCtl_getNMISourceStatus                                                                                                                             
0000f5fd  SysCtl_getTLVInfo                                                                                                                                     
0000fae9  TimerMSP432_allocateTimerResource                                                                                                                     
000111b5  TimerMSP432_freeTimerResource                                                                                                                         
00018a13  Timer_count                                                                                                                                           
0000ea9d  UARTMSP432_close                                                                                                                                      
0000d1f9  UARTMSP432_control                                                                                                                                    
0000c9c1  UARTMSP432_hwiIntFxn                                                                                                                                  
00003ce7  UARTMSP432_init                                                                                                                                       
00005581  UARTMSP432_open                                                                                                                                       
000124e9  UARTMSP432_read                                                                                                                                       
0000dafd  UARTMSP432_write                                                                                                                                      
00014a35  UART_Params_init                                                                                                                                      
000155cf  UART_close                                                                                                                                            
000180c8  UART_config                                                                                                                                           
000155d9  UART_control                                                                                                                                          
00018a14  UART_count                                                                                                                                            
000181f0  UART_defaultParams                                                                                                                                    
00011fe1  UART_init                                                                                                                                             
0000ae01  UART_initModule                                                                                                                                       
00012529  UART_open                                                                                                                                             
000155e3  UART_read                                                                                                                                             
000155ed  UART_write                                                                                                                                            
4000480c  WDTCTL_SYM                                                                                                                                            
00013fa9  WDT_A_holdTimer                                                                                                                                       
00015119  WatchdogMSP432_clear                                                                                                                                  
00012949  WatchdogMSP432_close                                                                                                                                  
0000d583  WatchdogMSP432_control                                                                                                                                
00009f75  WatchdogMSP432_convertMsToTicks                                                                                                                       
00018508  WatchdogMSP432_fxnTable                                                                                                                               
00015627  WatchdogMSP432_init                                                                                                                                   
0000d41d  WatchdogMSP432_open                                                                                                                                   
0001309b  WatchdogMSP432_setReload                                                                                                                              
00018808  Watchdog_config                                                                                                                                       
00018a15  Watchdog_count                                                                                                                                        
00012025  Watchdog_init                                                                                                                                         
000145c9  _Z10TinyGsmMinIjERKT_S2_S2_                                                                                                                           
000145e7  _Z10TinyGsmMinItERKT_S2_S2_                                                                                                                           
0000231d  _Z11serialEventv                                                                                                                                      
000152c9  _Z11utilsGetUIDPh                                                                                                                                     
000107a9  _Z11utilsGetUIDv                                                                                                                                      
0000231f  _Z12serialEvent1v                                                                                                                                     
00002321  _Z12serialEvent2v                                                                                                                                     
00002323  _Z12serialEvent3v                                                                                                                                     
0000f881  _Z12utilsOnResetv                                                                                                                                     
00014715  _Z13utilsPrintUIDv                                                                                                                                    
00002325  _Z14serialEventRunv                                                                                                                                   
00002335  _Z15serialEventRun1v                                                                                                                                  
00002345  _Z15serialEventRun2v                                                                                                                                  
00002355  _Z15serialEventRun3v                                                                                                                                  
00012be3  _Z15utilsGetRandnumPhj                                                                                                                                
0000b271  _Z16uartReadCallbackP12UART_Config_Pvj                                                                                                                
0000b287  _Z17uartReadCallback1P12UART_Config_Pvj                                                                                                               
0000b29d  _Z17uartReadCallback2P12UART_Config_Pvj                                                                                                               
0000b2b3  _Z17uartReadCallback3P12UART_Config_Pvj                                                                                                               
0000b2c9  _Z17uartWriteCallbackP12UART_Config_Pvj                                                                                                               
00014de9  _Z18isHexadecimalDigiti                                                                                                                               
0000b2df  _Z18uartWriteCallback1P12UART_Config_Pvj                                                                                                              
0000b2f5  _Z18uartWriteCallback2P12UART_Config_Pvj                                                                                                              
0000b30b  _Z18uartWriteCallback3P12UART_Config_Pvj                                                                                                              
000123a5  _Z23__finalize_destructionsPP20a_needed_destructionPv                                                                                                 
00012069  _Z25__add_destruction_to_listPP20a_needed_destructionPFYvPvES2_S2_                                                                                    
00013105  _Z3powIihENSt3__216__lazy_enable_ifIXaasr3std3__213is_arithmeticIT_EE5valuesr3std3__213is_arithmeticIT0_EE5valueENS0_9__promoteIS2_S3_vEEE4typeES2_S3_
00005b09  _Z4loopv                                                                                                                                              
0000e4a9  _Z5setupv                                                                                                                                             
00014dfd  _Z7isSpacei                                                                                                                                           
00014a4d  _Z8the_taskjj                                                                                                                                         
2000b640  _ZN10HttpClient10kUserAgentE                                                                                                                          
00009211  _ZN10HttpClient10readHeaderEv                                                                                                                         
00011209  _ZN10HttpClient10resetStateEv                                                                                                                         
00011405  _ZN10HttpClient10sendHeaderEPKcS1_                                                                                                                    
00011459  _ZN10HttpClient10sendHeaderEPKci                                                                                                                      
00015415  _ZN10HttpClient11endOfStreamEv                                                                                                                        
0000de49  _ZN10HttpClient12responseBodyEv                                                                                                                       
00008585  _ZN10HttpClient12startRequestEPKcS1_S1_iPKh                                                                                                           
00014a65  _ZN10HttpClient13contentLengthEv                                                                                                                      
00014c79  _ZN10HttpClient13finishHeadersEv                                                                                                                      
000136c1  _ZN10HttpClient13flushClientRxEv                                                                                                                      
00014f65  _ZN10HttpClient13setServerNameEPKc                                                                                                                    
00014c8f  _ZN10HttpClient13setServerPortEt                                                                                                                      
00012bad  _ZN10HttpClient14readHeaderNameEv                                                                                                                     
00010d3d  _ZN10HttpClient15headerAvailableEv                                                                                                                    
00010201  _ZN10HttpClient15readHeaderValueEv                                                                                                                    
00012f9d  _ZN10HttpClient16endOfBodyReachedEv                                                                                                                   
00009a45  _ZN10HttpClient18responseStatusCodeEv                                                                                                                 
0000af1d  _ZN10HttpClient18sendInitialHeadersEPKcS1_                                                                                                            
000134c9  _ZN10HttpClient19endOfHeadersReachedEv                                                                                                                
000152d7  _ZN10HttpClient19httpResponseTimeoutEv                                                                                                                
00010c87  _ZN10HttpClient19skipResponseHeadersEv                                                                                                                
2000b644  _ZN10HttpClient20kContentLengthPrefixE                                                                                                                
00014f77  _ZN10HttpClient22setHttpResponseTimeoutEj                                                                                                             
2000b648  _ZN10HttpClient24kTransferEncodingChunkedE                                                                                                            
00013c91  _ZN10HttpClient3getEPKc                                                                                                                               
00014ca5  _ZN10HttpClient4peekEv                                                                                                                                
0001360d  _ZN10HttpClient4postEPKcS1_iPKh                                                                                                                       
00011b69  _ZN10HttpClient4readEPhj                                                                                                                              
0000fc4f  _ZN10HttpClient4readEv                                                                                                                                
00014731  _ZN10HttpClient4stopEv                                                                                                                                
00014cbb  _ZN10HttpClient5flushEv                                                                                                                               
000134f7  _ZN10HttpClient5writeEPKhj                                                                                                                            
000136ed  _ZN10HttpClient5writeEh                                                                                                                               
00012fcf  _ZN10HttpClient7connectE9IPAddresst                                                                                                                   
0001425d  _ZN10HttpClient7connectEPKct                                                                                                                          
0000c071  _ZN10HttpClient9availableEv                                                                                                                           
00015421  _ZN10HttpClient9completedEv                                                                                                                           
00014cd1  _ZN10HttpClient9connectedEv                                                                                                                           
000149d1  _ZN10HttpClientC1ER6Client                                                                                                                            
00010049  _ZN10HttpClientC1ER6ClientPKct                                                                                                                        
000149d1  _ZN10HttpClientC2ER6Client                                                                                                                            
00010049  _ZN10HttpClientC2ER6ClientPKct                                                                                                                        
00014a7d  _ZN10HttpClientD1Ev                                                                                                                                   
00014e11  _ZN10HttpClientcvbEv                                                                                                                                  
00014605  _ZN10RawDegreesC1Ev                                                                                                                                   
000152e5  _ZN10__cxxabiv117__class_type_infoD0Ev                                                                                                                
0000a5ad  _ZN10__cxxabiv117__class_type_infoD1Ev                                                                                                                
0000a5ad  _ZN10__cxxabiv117__class_type_infoD2Ev                                                                                                                
000152f3  _ZN10__cxxabiv120__si_class_type_infoD0Ev                                                                                                             
0000a6ed  _ZN10__cxxabiv120__si_class_type_infoD1Ev                                                                                                             
0000a6ed  _ZN10__cxxabiv120__si_class_type_infoD2Ev                                                                                                             
000143a9  _ZN11ConnService11modemTurnOnEv                                                                                                                       
00007139  _ZN11ConnService14httpPostBinaryEPKcPhjR6String                                                                                                       
00012981  _ZN11ConnService15modemSerialStopEv                                                                                                                   
0000c319  _ZN11ConnService15sendMsrDataSendEP14ProtoMsrData_tb                                                                                                  
00012c19  _ZN11ConnService16modemSerialStartEv                                                                                                                  
00003359  _ZN11ConnService16msrDataSerializeEP14ProtoMsrData_tPhjbb                                                                                             
0000d799  _ZN11ConnService17getServerDateTimeERjb                                                                                                               
00007369  _ZN11ConnService5beginEv                                                                                                                              
00007599  _ZN11ConnService7httpGetEPKcRiR6StringRj                                                                                                              
00014e25  _ZN11ConnService9keepAliveEv                                                                                                                          
00013135  _ZN11ConnServiceC1EPFbvE                                                                                                                              
00013135  _ZN11ConnServiceC2EPFbvE                                                                                                                              
00015129  _ZN11ConnServiceD1Ev                                                                                                                                  
00015129  _ZN11ConnServiceD2Ev                                                                                                                                  
000143c9  _ZN11TinyGPSDate6commitEv                                                                                                                             
00014f89  _ZN11TinyGPSDate7setDateEPKc                                                                                                                          
00014623  _ZN11TinyGPSDateC1Ev                                                                                                                                  
00015301  _ZN11TinyGPSHDOPC1Ev                                                                                                                                  
0000ece1  _ZN11TinyGPSPlus12parseDecimalEPKc                                                                                                                    
0000df95  _ZN11TinyGPSPlus12parseDegreesEPKcR10RawDegrees                                                                                                       
00004599  _ZN11TinyGPSPlus16endOfTermHandlerEv                                                                                                                  
0000b6b5  _ZN11TinyGPSPlus6encodeEc                                                                                                                             
000120ad  _ZN11TinyGPSPlus7fromHexEc                                                                                                                            
0000d6e9  _ZN11TinyGPSPlusC1Ev                                                                                                                                  
0000d6e9  _ZN11TinyGPSPlusC2Ev                                                                                                                                  
000143e9  _ZN11TinyGPSTime6commitEv                                                                                                                             
00014f9b  _ZN11TinyGPSTime7setTimeEPKc                                                                                                                          
00014641  _ZN11TinyGPSTimeC1Ev                                                                                                                                  
0000e67d  _ZN11TinyGsmFifoIhLj64EE3getEPhib                                                                                                                     
000120f1  _ZN11TinyGsmFifoIhLj64EE3putERKh                                                                                                                      
00014a95  _ZN11TinyGsmFifoIhLj64EE4_incEii                                                                                                                      
00013ebd  _ZN11TinyGsmFifoIhLj64EE4freeEv                                                                                                                       
00013fcd  _ZN11TinyGsmFifoIhLj64EE4sizeEv                                                                                                                       
00014ce7  _ZN11TinyGsmFifoIhLj64EE5clearEv                                                                                                                      
0001530f  _ZN11TinyGsmFifoIhLj64EEC1Ev                                                                                                                          
0001531d  _ZN12TinyGPSSpeedC1Ev                                                                                                                                 
0001532b  _ZN13TinyGPSCourseC1Ev                                                                                                                                
00014fad  _ZN13TinyGPSCustom3setEPKc                                                                                                                            
00013ee3  _ZN13TinyGPSCustom6commitEv                                                                                                                           
000052a5  _ZN13TinyGsmSim80011gprsConnectEPKcS1_S1_                                                                                                             
00014fbf  _ZN13TinyGsmSim80011streamWriteIPKcEEvT_                                                                                                              
0001474d  _ZN13TinyGsmSim80011streamWriteIPKcJS2_EEEvT_DpT0_                                                                                                    
00013f09  _ZN13TinyGsmSim80011streamWriteIPKcJS2_S2_EEEvT_DpT0_                                                                                                 
00013cb9  _ZN13TinyGsmSim80011streamWriteIPKcJS2_S2_S2_EEEvT_DpT0_                                                                                              
00013719  _ZN13TinyGsmSim80011streamWriteIPKcJS2_S2_S2_S2_EEEvT_DpT0_                                                                                           
00013165  _ZN13TinyGsmSim80011streamWriteIPKcJS2_S2_S2_S2_S2_EEEvT_DpT0_                                                                                        
00012c4d  _ZN13TinyGsmSim80011streamWriteIPKcJS2_S2_S2_S2_S2_S2_EEEvT_DpT0_                                                                                     
000129b9  _ZN13TinyGsmSim80011streamWriteIPKcJS2_S2_S2_S2_S2_S2_S2_EEEvT_DpT0_                                                                                  
00012761  _ZN13TinyGsmSim80011streamWriteIPKcJS2_S2_S2_S2_S2_S2_S2_S2_EEEvT_DpT0_                                                                               
00013001  _ZN13TinyGsmSim80011streamWriteIPKcJS2_S2_S2_tS2_EEEvT_DpT0_                                                                                          
00013525  _ZN13TinyGsmSim80011streamWriteIPKcJS2_S2_cS2_EEEvT_DpT0_                                                                                             
00013553  _ZN13TinyGsmSim80011streamWriteIPKcJS2_S2_tS2_EEEvT_DpT0_                                                                                             
00013745  _ZN13TinyGsmSim80011streamWriteIPKcJS2_bS2_EEEvT_DpT0_                                                                                                
00013771  _ZN13TinyGsmSim80011streamWriteIPKcJS2_cS2_EEEvT_DpT0_                                                                                                
0001379d  _ZN13TinyGsmSim80011streamWriteIPKcJS2_hS2_EEEvT_DpT0_                                                                                                
00013195  _ZN13TinyGsmSim80011streamWriteIPKcJS2_hS2_S2_EEEvT_DpT0_                                                                                             
00011ec7  _ZN13TinyGsmSim80011streamWriteIPKcJS2_hcS2_S2_S2_S2_tS2_EEEvT_DpT0_                                                                                  
00012b41  _ZN13TinyGsmSim80011streamWriteIPKcJS2_hcjS2_EEEvT_DpT0_                                                                                              
000137c9  _ZN13TinyGsmSim80011streamWriteIPKcJS2_tS2_EEEvT_DpT0_                                                                                                
00013b45  _ZN13TinyGsmSim80011streamWriteIPKcJbS2_EEEvT_DpT0_                                                                                                   
00013b6f  _ZN13TinyGsmSim80011streamWriteIPKcJcS2_EEEvT_DpT0_                                                                                                   
00013b99  _ZN13TinyGsmSim80011streamWriteIPKcJhS2_EEEvT_DpT0_                                                                                                   
000137f5  _ZN13TinyGsmSim80011streamWriteIPKcJhS2_S2_EEEvT_DpT0_                                                                                                
00011f0d  _ZN13TinyGsmSim80011streamWriteIPKcJhcS2_S2_S2_S2_tS2_EEEvT_DpT0_                                                                                     
00012c81  _ZN13TinyGsmSim80011streamWriteIPKcJhcjS2_EEEvT_DpT0_                                                                                                 
00013bc3  _ZN13TinyGsmSim80011streamWriteIPKcJtS2_EEEvT_DpT0_                                                                                                   
0001427f  _ZN13TinyGsmSim80011streamWriteIbJPKcEEEvT_DpT0_                                                                                                      
00014409  _ZN13TinyGsmSim80011streamWriteIcJPKcEEEvT_DpT0_                                                                                                      
000128d5  _ZN13TinyGsmSim80011streamWriteIcJPKcS2_S2_S2_tS2_EEEvT_DpT0_                                                                                         
00013bed  _ZN13TinyGsmSim80011streamWriteIcJjPKcEEEvT_DpT0_                                                                                                     
000142a1  _ZN13TinyGsmSim80011streamWriteIhJPKcEEEvT_DpT0_                                                                                                      
00013821  _ZN13TinyGsmSim80011streamWriteIhJPKcS2_EEEvT_DpT0_                                                                                                   
00012135  _ZN13TinyGsmSim80011streamWriteIhJcPKcS2_S2_S2_tS2_EEEvT_DpT0_                                                                                        
0001384d  _ZN13TinyGsmSim80011streamWriteIhJcjPKcEEEvT_DpT0_                                                                                                    
0001465f  _ZN13TinyGsmSim80011streamWriteIjJPKcEEEvT_DpT0_                                                                                                      
000142c3  _ZN13TinyGsmSim80011streamWriteItJPKcEEEvT_DpT0_                                                                                                      
0000c5ad  _ZN13TinyGsmSim80012getModemInfoEv                                                                                                                    
0000cce1  _ZN13TinyGsmSim80012getSimStatusEm                                                                                                                    
0000ca8d  _ZN13TinyGsmSim80012modemConnectEPKcthbi                                                                                                              
00013879  _ZN13TinyGsmSim80012waitResponseEPKcS1_S1_S1_S1_                                                                                                      
00011f55  _ZN13TinyGsmSim80012waitResponseEjPKcS1_S1_S1_S1_                                                                                                     
0000493d  _ZN13TinyGsmSim80012waitResponseEjR6StringPKcS3_S3_S3_S3_                                                                                             
0000fcc5  _ZN13TinyGsmSim80014gprsDisconnectEv                                                                                                                  
00013033  _ZN13TinyGsmSim80014waitForNetworkEm                                                                                                                  
0000fe91  _ZN13TinyGsmSim80015streamSkipUntilEcm                                                                                                                
0000d8f5  _ZN13TinyGsmSim80017modemGetAvailableEh                                                                                                               
0000f0bd  _ZN13TinyGsmSim80017modemGetConnectedEh                                                                                                               
00013ff1  _ZN13TinyGsmSim80018isNetworkConnectedEv                                                                                                              
0000f67d  _ZN13TinyGsmSim80021getRegistrationStatusEv                                                                                                           
00012cb5  _ZN13TinyGsmSim8006sendATIJPKcEEEvDpT_                                                                                                                
0001125d  _ZN13TinyGsmSim8006sendATIJPKcS2_S2_S2_S2_S2_S2_EEEvDpT_                                                                                              
00011bb1  _ZN13TinyGsmSim8006sendATIJPKcS2_cEEEvDpT_                                                                                                            
00012179  _ZN13TinyGsmSim8006sendATIJPKcbEEEvDpT_                                                                                                               
000121bd  _ZN13TinyGsmSim8006sendATIJPKchEEEvDpT_                                                                                                               
00011bf9  _ZN13TinyGsmSim8006sendATIJPKchS2_EEEvDpT_                                                                                                            
00010549  _ZN13TinyGsmSim8006sendATIJPKchcS2_S2_S2_S2_tEEEvDpT_                                                                                                 
00011551  _ZN13TinyGsmSim8006sendATIJPKchcjEEEvDpT_                                                                                                             
0000f9f5  _ZN13TinyGsmSim8008maintainEv                                                                                                                         
00011c41  _ZN13TinyGsmSim8009GsmClient4initEPS_h                                                                                                                
00015339  _ZN13TinyGsmSim8009GsmClient4peekEv                                                                                                                   
0000c681  _ZN13TinyGsmSim8009GsmClient4readEPhj                                                                                                                 
00014015  _ZN13TinyGsmSim8009GsmClient4readEv                                                                                                                   
0000e22d  _ZN13TinyGsmSim8009GsmClient4stopEv                                                                                                                   
000148fd  _ZN13TinyGsmSim8009GsmClient5flushEv                                                                                                                  
00013ce1  _ZN13TinyGsmSim8009GsmClient5writeEPKc                                                                                                                
00013d09  _ZN13TinyGsmSim8009GsmClient5writeEPKhj                                                                                                               
00014917  _ZN13TinyGsmSim8009GsmClient5writeEh                                                                                                                  
00013581  _ZN13TinyGsmSim8009GsmClient7connectE9IPAddresst                                                                                                      
0000dba5  _ZN13TinyGsmSim8009GsmClient7connectE9IPAddressti                                                                                                     
000142e5  _ZN13TinyGsmSim8009GsmClient7connectEPKct                                                                                                             
000115a1  _ZN13TinyGsmSim8009GsmClient7connectEPKcti                                                                                                            
00011ad5  _ZN13TinyGsmSim8009GsmClient9availableEv                                                                                                              
00014769  _ZN13TinyGsmSim8009GsmClient9connectedEv                                                                                                              
00012ce9  _ZN13TinyGsmSim8009GsmClientC1ERS_h                                                                                                                   
00014931  _ZN13TinyGsmSim8009GsmClientcvbEv                                                                                                                     
00009b9d  _ZN13TinyGsmSim8009modemReadEjh                                                                                                                       
0000cc21  _ZN13TinyGsmSim8009modemSendEPKvjh                                                                                                                    
00014785  _ZN13TinyGsmSim800C1ER6Stream                                                                                                                         
000027b3  _ZN14HardwareSerial12readCallbackEP12UART_Config_Pvj                                                                                                  
00002827  _ZN14HardwareSerial13writeCallbackEP12UART_Config_Pvj                                                                                                 
0000262f  _ZN14HardwareSerial3endEv                                                                                                                             
00002365  _ZN14HardwareSerial4initEmPFYvP12UART_Config_PvjES4_                                                                                                  
000026c5  _ZN14HardwareSerial4peekEv                                                                                                                            
0000271d  _ZN14HardwareSerial4readEv                                                                                                                            
000024c7  _ZN14HardwareSerial5beginEm                                                                                                                           
000025bf  _ZN14HardwareSerial5beginEmb                                                                                                                          
00002799  _ZN14HardwareSerial5flushEv                                                                                                                           
000028d5  _ZN14HardwareSerial5writeEPKhj                                                                                                                        
000028bb  _ZN14HardwareSerial5writeEh                                                                                                                           
00002601  _ZN14HardwareSerial7acquireEv                                                                                                                         
000023ab  _ZN14HardwareSerial7primeTxEv                                                                                                                         
00002619  _ZN14HardwareSerial7releaseEv                                                                                                                         
000025f1  _ZN14HardwareSerial7setPinsEm                                                                                                                         
000023a1  _ZN14HardwareSerial8flushAllEv                                                                                                                        
0000264d  _ZN14HardwareSerial9availableEv                                                                                                                       
000025e1  _ZN14HardwareSerial9setModuleEm                                                                                                                       
00002449  _ZN14HardwareSerialC1Em                                                                                                                               
0000246b  _ZN14HardwareSerialC1EmPFYvP12UART_Config_PvjES4_                                                                                                     
00002497  _ZN14HardwareSerialC1EmPFYvP12UART_Config_PvjES4_b                                                                                                    
00002429  _ZN14HardwareSerialC1Ev                                                                                                                               
00002449  _ZN14HardwareSerialC2Em                                                                                                                               
0000246b  _ZN14HardwareSerialC2EmPFYvP12UART_Config_PvjES4_                                                                                                     
00002497  _ZN14HardwareSerialC2EmPFYvP12UART_Config_PvjES4_b                                                                                                    
00002429  _ZN14HardwareSerialC2Ev                                                                                                                               
0000241d  _ZN14HardwareSerialcvbEv                                                                                                                              
00010745  _ZN14SerialTransfer12unpackPacketEPhRKh                                                                                                               
00014e39  _ZN14SerialTransfer5beginER6Stream                                                                                                                    
00006ef9  _ZN14SerialTransfer9availableEv                                                                                                                       
00010e49  _ZN14SerialTransferC1Ev                                                                                                                               
00014fd1  _ZN14TinyGPSDecimal3setEPKc                                                                                                                           
00014e4d  _ZN14TinyGPSDecimal5valueEv                                                                                                                           
00014429  _ZN14TinyGPSDecimal6commitEv                                                                                                                          
0001467d  _ZN14TinyGPSDecimalC1Ev                                                                                                                               
0001542d  _ZN14TinyGPSDecimalC2Ev                                                                                                                               
00014fe3  _ZN14TinyGPSInteger3setEPKc                                                                                                                           
00014449  _ZN14TinyGPSInteger6commitEv                                                                                                                          
0001469b  _ZN14TinyGPSIntegerC1Ev                                                                                                                               
00014ff5  _ZN15StringSumHelperC1ERK6String                                                                                                                      
00015347  _ZN15StringSumHelperD1Ev                                                                                                                              
00014039  _ZN15TinyGPSAltitude6metersEv                                                                                                                         
00015355  _ZN15TinyGPSAltitudeC1Ev                                                                                                                              
00015007  _ZN15TinyGPSLocation11setLatitudeEPKc                                                                                                                 
00015019  _ZN15TinyGPSLocation12setLongitudeEPKc                                                                                                                
000108cd  _ZN15TinyGPSLocation3latEv                                                                                                                            
0001092d  _ZN15TinyGPSLocation3lngEv                                                                                                                            
00012d1d  _ZN15TinyGPSLocation6commitEv                                                                                                                         
00012d51  _ZN15TinyGPSLocationC1Ev                                                                                                                              
0001098d  _ZN17SerialTransferCRC13generateTableEv                                                                                                               
000115f1  _ZN17SerialTransferCRC9calculateEPhh                                                                                                                  
000112b1  _ZN17SerialTransferCRCC1ERKhS1_                                                                                                                       
00002a2f  _ZN5Print10printFloatEfh                                                                                                                              
000029b9  _ZN5Print11printNumberEmh                                                                                                                             
00002bbb  _ZN5Print5printEPKc                                                                                                                                   
00002b95  _ZN5Print5printERK6String                                                                                                                             
00002cd7  _ZN5Print5printERK9Printable                                                                                                                          
00002bcb  _ZN5Print5printEc                                                                                                                                     
00002cbd  _ZN5Print5printEfi                                                                                                                                    
00002be5  _ZN5Print5printEhi                                                                                                                                    
00002bfd  _ZN5Print5printEii                                                                                                                                    
00002c11  _ZN5Print5printEji                                                                                                                                    
00002c25  _ZN5Print5printEli                                                                                                                                    
00002c91  _ZN5Print5printEmi                                                                                                                                    
000146b9  _ZN5Print5writeEPKc                                                                                                                                   
00002b51  _ZN5Print5writeEPKhj                                                                                                                                  
00002d0d  _ZN5Print7printlnEPKc                                                                                                                                 
00002ced  _ZN5Print7printlnERK6String                                                                                                                           
00002e59  _ZN5Print7printlnERK9Printable                                                                                                                        
00002d2d  _ZN5Print7printlnEc                                                                                                                                   
00002e2b  _ZN5Print7printlnEfi                                                                                                                                  
00002d51  _ZN5Print7printlnEhi                                                                                                                                  
00002d83  _ZN5Print7printlnEii                                                                                                                                  
00002dad  _ZN5Print7printlnEji                                                                                                                                  
00002dd7  _ZN5Print7printlnEli                                                                                                                                  
00002e01  _ZN5Print7printlnEmi                                                                                                                                  
00002e79  _ZN5Print7printlnEv                                                                                                                                   
000147a1  _ZN5PrintC1Ev                                                                                                                                         
00015439  _ZN5PrintC2Ev                                                                                                                                         
00014e61  _ZN6Client10sslConnectE9IPAddresst                                                                                                                    
00014e75  _ZN6Client10sslConnectEPKct                                                                                                                           
00014aad  _ZN6ClientC1Ev                                                                                                                                        
00015445  _ZN6ClientC2Ev                                                                                                                                        
0000322f  _ZN6Stream10parseFloatEc                                                                                                                              
00003047  _ZN6Stream10parseFloatEv                                                                                                                              
000030f9  _ZN6Stream10readStringEv                                                                                                                              
00002f49  _ZN6Stream10setTimeoutEm                                                                                                                              
00002f09  _ZN6Stream13peekNextDigitEv                                                                                                                           
0000309b  _ZN6Stream14readBytesUntilEcPcj                                                                                                                       
00003143  _ZN6Stream15readStringUntilEc                                                                                                                         
00002f5b  _ZN6Stream4findEPc                                                                                                                                    
00002f6d  _ZN6Stream4findEPcj                                                                                                                                   
00003197  _ZN6Stream8parseIntEc                                                                                                                                 
00003039  _ZN6Stream8parseIntEv                                                                                                                                 
00002f8d  _ZN6Stream9findUntilEPcS0_                                                                                                                            
00002fb5  _ZN6Stream9findUntilEPcjS0_j                                                                                                                          
00003055  _ZN6Stream9readBytesEPcj                                                                                                                              
00002ecd  _ZN6Stream9timedPeekEv                                                                                                                                
00002e91  _ZN6Stream9timedReadEv                                                                                                                                
00014469  _ZN6StreamC1Ev                                                                                                                                        
00015451  _ZN6StreamC2Ev                                                                                                                                        
00000dff  _ZN6String10invalidateEv                                                                                                                              
00000d03  _ZN6String11toLowerCaseEv                                                                                                                             
00000d31  _ZN6String11toUpperCaseEv                                                                                                                             
00000e23  _ZN6String12changeBufferEj                                                                                                                            
00000ecf  _ZN6String4copyEPK19__FlashStringHelperj                                                                                                              
00000e9f  _ZN6String4copyEPKcj                                                                                                                                  
000147bd  _ZN6String4initEv                                                                                                                                     
00000d5f  _ZN6String4trimEv                                                                                                                                     
000004b5  _ZN6String6concatEPK19__FlashStringHelper                                                                                                             
000003ad  _ZN6String6concatEPKc                                                                                                                                 
00000e4f  _ZN6String6concatEPKcj                                                                                                                                
00000397  _ZN6String6concatERKS_                                                                                                                                
000003cd  _ZN6String6concatEc                                                                                                                                   
000003ef  _ZN6String6concatEh                                                                                                                                   
00000415  _ZN6String6concatEi                                                                                                                                   
0000043d  _ZN6String6concatEj                                                                                                                                   
00000465  _ZN6String6concatEl                                                                                                                                   
0000048d  _ZN6String6concatEm                                                                                                                                   
00000c7d  _ZN6String6removeEj                                                                                                                                   
00000c93  _ZN6String6removeEjj                                                                                                                                  
00000ae5  _ZN6String7replaceERKS_S1_                                                                                                                            
00000aa3  _ZN6String7replaceEcc                                                                                                                                 
000002df  _ZN6String7reserveEj                                                                                                                                  
0000074d  _ZN6String9setCharAtEjc                                                                                                                               
000001a5  _ZN6StringC1EPK19__FlashStringHelper                                                                                                                  
00000169  _ZN6StringC1EPKc                                                                                                                                      
0000018d  _ZN6StringC1ERKS_                                                                                                                                     
000001bd  _ZN6StringC1Ec                                                                                                                                        
000001e5  _ZN6StringC1Ehh                                                                                                                                       
00000217  _ZN6StringC1Eih                                                                                                                                       
00000245  _ZN6StringC1Ejh                                                                                                                                       
00000273  _ZN6StringC1Elh                                                                                                                                       
000002a1  _ZN6StringC1Emh                                                                                                                                       
000001a5  _ZN6StringC2EPK19__FlashStringHelper                                                                                                                  
00000169  _ZN6StringC2EPKc                                                                                                                                      
0000018d  _ZN6StringC2ERKS_                                                                                                                                     
000001bd  _ZN6StringC2Ec                                                                                                                                        
000001e5  _ZN6StringC2Ehh                                                                                                                                       
00000217  _ZN6StringC2Eih                                                                                                                                       
00000245  _ZN6StringC2Ejh                                                                                                                                       
00000273  _ZN6StringC2Elh                                                                                                                                       
000002a1  _ZN6StringC2Emh                                                                                                                                       
000002cf  _ZN6StringD1Ev                                                                                                                                        
000002cf  _ZN6StringD2Ev                                                                                                                                        
00000371  _ZN6StringaSEPK19__FlashStringHelper                                                                                                                  
0000034b  _ZN6StringaSEPKc                                                                                                                                      
00000319  _ZN6StringaSERKS_                                                                                                                                     
0000079b  _ZN6StringixEj                                                                                                                                        
0001502b  _ZN6StringpLEPKc                                                                                                                                      
0001503d  _ZN6StringpLERKS_                                                                                                                                     
00014d13  _ZN6StringpLEc                                                                                                                                        
00014d29  _ZN6StringpLEh                                                                                                                                        
0001504f  _ZN6StringpLEi                                                                                                                                        
00009129  _ZN9IPAddressC1EPKh                                                                                                                                   
00013d31  _ZN9IPAddressC1ERKS_                                                                                                                                  
000090c9  _ZN9IPAddressC1Ehhhh                                                                                                                                  
00009109  _ZN9IPAddressC1Ej                                                                                                                                     
000090a9  _ZN9IPAddressC1Ev                                                                                                                                     
00009129  _ZN9IPAddressC2EPKh                                                                                                                                   
000090c9  _ZN9IPAddressC2Ehhhh                                                                                                                                  
00009109  _ZN9IPAddressC2Ej                                                                                                                                     
000090a9  _ZN9IPAddressC2Ev                                                                                                                                     
00009165  _ZN9IPAddressaSEPKh                                                                                                                                   
0000917d  _ZN9IPAddressaSEj                                                                                                                                     
00009149  _ZN9IPAddresseqEPKh                                                                                                                                   
00014e89  _ZN9IPAddressixEi                                                                                                                                     
000147d9  _ZN9MainBoard11sensorPowerEb                                                                                                                          
00014d3f  _ZN9MainBoard12getGSMStatusEv                                                                                                                         
00005851  _ZN9MainBoard4initEv                                                                                                                                  
000105ad  _ZN9MainBoard5powerEb                                                                                                                                 
0000cd9d  _ZN9MainBoard8gsmPowerEb                                                                                                                              
00014ac5  _ZN9PrintableC1ERKS_                                                                                                                                  
00014add  _ZN9PrintableC1Ev                                                                                                                                     
00015139  _ZN9PrintableC2ERKS_                                                                                                                                  
0001545d  _ZN9PrintableC2Ev                                                                                                                                     
00015363  _ZNK15TinyGPSLocation7isValidEv                                                                                                                       
00000691  _ZNK6String10startsWithERKS_                                                                                                                          
000006b3  _ZNK6String10startsWithERKS_j                                                                                                                         
00000963  _ZNK6String11lastIndexOfERKS_                                                                                                                         
0000097d  _ZNK6String11lastIndexOfERKS_j                                                                                                                        
000008df  _ZNK6String11lastIndexOfEc                                                                                                                            
000008f9  _ZNK6String11lastIndexOfEcj                                                                                                                           
00000627  _ZNK6String16equalsIgnoreCaseERKS_                                                                                                                    
00015371  _ZNK6String5c_strEv                                                                                                                                   
00000de7  _ZNK6String5toIntEv                                                                                                                                   
0000073d  _ZNK6String6charAtEj                                                                                                                                  
0000057d  _ZNK6String6equalsEPKc                                                                                                                                
00000559  _ZNK6String6equalsERKS_                                                                                                                               
0001537f  _ZNK6String6lengthEv                                                                                                                                  
00000889  _ZNK6String7indexOfERKS_                                                                                                                              
0000089b  _ZNK6String7indexOfERKS_j                                                                                                                             
0000082d  _ZNK6String7indexOfEc                                                                                                                                 
00000843  _ZNK6String7indexOfEcj                                                                                                                                
000006f9  _ZNK6String8endsWithERKS_                                                                                                                             
000007c9  _ZNK6String8getBytesEPhjj                                                                                                                             
0000050b  _ZNK6String9compareToERKS_                                                                                                                            
00014af5  _ZNK6String9substringEj                                                                                                                               
00000a0d  _ZNK6String9substringEjj                                                                                                                              
0000060d  _ZNK6StringgeERKS_                                                                                                                                    
000005d9  _ZNK6StringgtERKS_                                                                                                                                    
00000773  _ZNK6StringixEj                                                                                                                                       
000005f3  _ZNK6StringleERKS_                                                                                                                                    
000005bf  _ZNK6StringltERKS_                                                                                                                                    
00009195  _ZNK9IPAddress7printToER5Print                                                                                                                        
0000493b  _ZNSt9type_infoD1Ev                                                                                                                                   
0000493b  _ZNSt9type_infoD2Ev                                                                                                                                   
0000b155  _ZSt17__throw_bad_allocv                                                                                                                              
000187a8  _ZTI10HttpClient                                                                                                                                      
000187b4  _ZTI14HardwareSerial                                                                                                                                  
0001898c  _ZTI5Print                                                                                                                                            
000187c0  _ZTI6Client                                                                                                                                           
000187cc  _ZTI6Stream                                                                                                                                           
000187d8  _ZTI9IPAddress                                                                                                                                        
00018994  _ZTI9MainBoard                                                                                                                                        
0001899c  _ZTI9Printable                                                                                                                                        
000187e4  _ZTIN10__cxxabiv117__class_type_infoE                                                                                                                 
000187f0  _ZTIN10__cxxabiv120__si_class_type_infoE                                                                                                              
000187fc  _ZTIN13TinyGsmSim8009GsmClientE                                                                                                                       
000189a4  _ZTISt9type_info                                                                                                                                      
0001875c  _ZTS10HttpClient                                                                                                                                      
0001868c  _ZTS14HardwareSerial                                                                                                                                  
00018a08  _ZTS5Print                                                                                                                                            
000189ac  _ZTS6Client                                                                                                                                           
000189b4  _ZTS6Stream                                                                                                                                           
000188c9  _ZTS9IPAddress                                                                                                                                        
000188d4  _ZTS9MainBoard                                                                                                                                        
000188df  _ZTS9Printable                                                                                                                                        
000182ec  _ZTSN10__cxxabiv117__class_type_infoE                                                                                                                 
000181c8  _ZTSN10__cxxabiv120__si_class_type_infoE                                                                                                              
000184e9  _ZTSN13TinyGsmSim8009GsmClientE                                                                                                                       
00018769  _ZTSSt9type_info                                                                                                                                      
00017ed8  _ZTV10HttpClient                                                                                                                                      
00018310  _ZTV14HardwareSerial                                                                                                                                  
000186a0  _ZTV5Print                                                                                                                                            
00017f74  _ZTV6Client                                                                                                                                           
00018330  _ZTV6Stream                                                                                                                                           
00018814  _ZTV9IPAddress                                                                                                                                        
00018524  _ZTV9MainBoard                                                                                                                                        
00018820  _ZTV9Printable                                                                                                                                        
000186b0  _ZTVN10__cxxabiv117__class_type_infoE                                                                                                                 
000186c0  _ZTVN10__cxxabiv120__si_class_type_infoE                                                                                                              
00017f28  _ZTVN13TinyGsmSim8009GsmClientE                                                                                                                       
000184cd  _ZZN13TinyGsmSim80011gprsConnectEPKcS1_S1_Es                                                                                                          
00018630  _ZZN13TinyGsmSim80011gprsConnectEPKcS1_S1_Es_0                                                                                                        
00018608  _ZZN13TinyGsmSim80011gprsConnectEPKcS1_S1_Es_1                                                                                                        
00018643  _ZZN13TinyGsmSim80011gprsConnectEPKcS1_S1_Es_2                                                                                                        
00018656  _ZZN13TinyGsmSim80011gprsConnectEPKcS1_S1_Es_3                                                                                                        
00018850  _ZZN13TinyGsmSim80011gprsConnectEPKcS1_S1_Es_4                                                                                                        
0001885b  _ZZN13TinyGsmSim80011gprsConnectEPKcS1_S1_Es_5                                                                                                        
00018866  _ZZN13TinyGsmSim80011gprsConnectEPKcS1_S1_Es_6                                                                                                        
0001891c  _ZZN13TinyGsmSim80011gprsConnectEPKcS1_S1_Es_7                                                                                                        
000188ea  _ZZN13TinyGsmSim80011gprsConnectEPKcS1_S1_Es_8                                                                                                        
00018776  _ZZN13TinyGsmSim80011gprsConnectEPKcS1_S1_Es_9                                                                                                        
00018782  _ZZN13TinyGsmSim80011gprsConnectEPKcS1_S1_Es__10_                                                                                                     
00018963  _ZZN13TinyGsmSim80011gprsConnectEPKcS1_S1_Es__11_                                                                                                     
00018094  _ZZN13TinyGsmSim80011gprsConnectEPKcS1_S1_Es__12_                                                                                                     
00017716  _ZZN13TinyGsmSim80011gprsConnectEPKcS1_S1_Es__13_                                                                                                     
000189ec  _ZZN13TinyGsmSim80011gprsConnectEPKcS1_S1_Es__14_                                                                                                     
000188f4  _ZZN13TinyGsmSim80011gprsConnectEPKcS1_S1_Es__15_                                                                                                     
000184b0  _ZZN13TinyGsmSim80011gprsConnectEPKcS1_S1_Es__16_                                                                                                     
00017ed6  _ZZN13TinyGsmSim80012getModemInfoEvEs                                                                                                                 
0001898b  _ZZN13TinyGsmSim80012getModemInfoEvEs_0                                                                                                               
000189f3  _ZZN13TinyGsmSim80012getModemInfoEvEs_1                                                                                                               
00017c01  _ZZN13TinyGsmSim80012getModemInfoEvEs_2                                                                                                               
0001830e  _ZZN13TinyGsmSim80012getModemInfoEvEs_3                                                                                                               
000189fa  _ZZN13TinyGsmSim80012getSimStatusEmEs                                                                                                                 
00018925  _ZZN13TinyGsmSim80012getSimStatusEmEs_0                                                                                                               
00018a16  _ZZN13TinyGsmSim80012getSimStatusEmEs_1                                                                                                               
0001896b  _ZZN13TinyGsmSim80012getSimStatusEmEs_2                                                                                                               
00018973  _ZZN13TinyGsmSim80012getSimStatusEmEs_3                                                                                                               
0001870e  _ZZN13TinyGsmSim80012getSimStatusEmEs_4                                                                                                               
000188fe  _ZZN13TinyGsmSim80012getSimStatusEmEs_5                                                                                                               
0001892e  _ZZN13TinyGsmSim80012modemConnectEPKcthbiEs                                                                                                           
00018871  _ZZN13TinyGsmSim80012modemConnectEPKcthbiEs_0                                                                                                         
00018a35  _ZZN13TinyGsmSim80012modemConnectEPKcthbiEs_1                                                                                                         
00018a3f  _ZZN13TinyGsmSim80012modemConnectEPKcthbiEs_2                                                                                                         
000181ed  _ZZN13TinyGsmSim80012modemConnectEPKcthbiEs_3                                                                                                         
0001871b  _ZZN13TinyGsmSim80012modemConnectEPKcthbiEs_4                                                                                                         
000186f0  _ZZN13TinyGsmSim80012modemConnectEPKcthbiEs_5                                                                                                         
00018668  _ZZN13TinyGsmSim80012modemConnectEPKcthbiEs_6                                                                                                         
0001897b  _ZZN13TinyGsmSim80012modemConnectEPKcthbiEs_7                                                                                                         
0001887c  _ZZN13TinyGsmSim80012modemConnectEPKcthbiEs_8                                                                                                         
00018728  _ZZN13TinyGsmSim80012waitResponseEjR6StringPKcS3_S3_S3_S3_Es                                                                                          
00018a43  _ZZN13TinyGsmSim80012waitResponseEjR6StringPKcS3_S3_S3_S3_Es_0                                                                                        
0001878e  _ZZN13TinyGsmSim80012waitResponseEjR6StringPKcS3_S3_S3_S3_Es_1                                                                                        
00018937  _ZZN13TinyGsmSim80012waitResponseEjR6StringPKcS3_S3_S3_S3_Es_2                                                                                        
00018505  _ZZN13TinyGsmSim80012waitResponseEjR6StringPKcS3_S3_S3_S3_Es_3                                                                                        
00018940  _ZZN13TinyGsmSim80014gprsDisconnectEvEs                                                                                                               
00018949  _ZZN13TinyGsmSim80014gprsDisconnectEvEs_0                                                                                                             
00018735  _ZZN13TinyGsmSim80017modemGetAvailableEhEs                                                                                                            
00018887  _ZZN13TinyGsmSim80017modemGetAvailableEhEs_0                                                                                                          
0001879a  _ZZN13TinyGsmSim80017modemGetConnectedEhEs                                                                                                            
00018892  _ZZN13TinyGsmSim80017modemGetConnectedEhEs_0                                                                                                          
00018742  _ZZN13TinyGsmSim80017modemGetConnectedEhEs_1                                                                                                          
00018908  _ZZN13TinyGsmSim80017modemGetConnectedEhEs_2                                                                                                          
0001889d  _ZZN13TinyGsmSim80017modemGetConnectedEhEs_3                                                                                                          
0001867a  _ZZN13TinyGsmSim80017modemGetConnectedEhEs_4                                                                                                          
000188a8  _ZZN13TinyGsmSim80017modemGetConnectedEhEs_5                                                                                                          
00018a01  _ZZN13TinyGsmSim80021getRegistrationStatusEvEs                                                                                                        
00018952  _ZZN13TinyGsmSim80021getRegistrationStatusEvEs_0                                                                                                      
0001869d  _ZZN13TinyGsmSim8006sendATIJPKcEEEvDpT_Es                                                                                                             
00018d00  _ZZN13TinyGsmSim8006sendATIJPKcEEEvDpT_Es_0                                                                                                           
00018d03  _ZZN13TinyGsmSim8006sendATIJPKcS2_S2_S2_S2_S2_S2_EEEvDpT_Es                                                                                           
00018d06  _ZZN13TinyGsmSim8006sendATIJPKcS2_S2_S2_S2_S2_S2_EEEvDpT_Es_0                                                                                         
00018d09  _ZZN13TinyGsmSim8006sendATIJPKcS2_cEEEvDpT_Es                                                                                                         
00018d0c  _ZZN13TinyGsmSim8006sendATIJPKcS2_cEEEvDpT_Es_0                                                                                                       
00018d0f  _ZZN13TinyGsmSim8006sendATIJPKcbEEEvDpT_Es                                                                                                            
00018d12  _ZZN13TinyGsmSim8006sendATIJPKcbEEEvDpT_Es_0                                                                                                          
00018d15  _ZZN13TinyGsmSim8006sendATIJPKchEEEvDpT_Es                                                                                                            
00018d18  _ZZN13TinyGsmSim8006sendATIJPKchEEEvDpT_Es_0                                                                                                          
00018d1b  _ZZN13TinyGsmSim8006sendATIJPKchS2_EEEvDpT_Es                                                                                                         
00018d1e  _ZZN13TinyGsmSim8006sendATIJPKchS2_EEEvDpT_Es_0                                                                                                       
00018d21  _ZZN13TinyGsmSim8006sendATIJPKchcS2_S2_S2_S2_tEEEvDpT_Es                                                                                              
00018d24  _ZZN13TinyGsmSim8006sendATIJPKchcS2_S2_S2_S2_tEEEvDpT_Es_0                                                                                            
00018d27  _ZZN13TinyGsmSim8006sendATIJPKchcjEEEvDpT_Es                                                                                                          
00018d2a  _ZZN13TinyGsmSim8006sendATIJPKchcjEEEvDpT_Es_0                                                                                                        
000188b3  _ZZN13TinyGsmSim8009GsmClient4stopEvEs                                                                                                                
00018d2d  _ZZN13TinyGsmSim8009GsmClient4stopEvEs_0                                                                                                              
00018576  _ZZN13TinyGsmSim8009GsmClient7connectE9IPAddresstiEs                                                                                                  
0001874f  _ZZN13TinyGsmSim8009modemReadEjhEs                                                                                                                    
000188be  _ZZN13TinyGsmSim8009modemReadEjhEs_0                                                                                                                  
00018912  _ZZN13TinyGsmSim8009modemSendEPKvjhEs                                                                                                                 
000187a6  _ZZN13TinyGsmSim8009modemSendEPKvjhEs_0                                                                                                               
000186ff  _ZZN13TinyGsmSim8009modemSendEPKvjhEs_1                                                                                                               
0000f83d  _ZdaPv                                                                                                                                                
0000f825  _ZdlPv                                                                                                                                                
0000acdd  _ZdlPvj                                                                                                                                               
0000f831  _Znaj                                                                                                                                                 
0000f819  _Znwj                                                                                                                                                 
0000014b  _ZplRK15StringSumHelperPK19__FlashStringHelper                                                                                                        
00000065  _ZplRK15StringSumHelperPKc                                                                                                                            
00000041  _ZplRK15StringSumHelperRK6String                                                                                                                      
0000008f  _ZplRK15StringSumHelperc                                                                                                                              
000000b1  _ZplRK15StringSumHelperh                                                                                                                              
000000d3  _ZplRK15StringSumHelperi                                                                                                                              
000000f1  _ZplRK15StringSumHelperj                                                                                                                              
0000010f  _ZplRK15StringSumHelperl                                                                                                                              
0000012d  _ZplRK15StringSumHelperm                                                                                                                              
00000000  __ASM__                                                                                                                                               
2000a0d0  __CIOBUF_                                                                                                                                             
00000083  __ISA__                                                                                                                                               
00000096  __PLAT__                                                                                                                                              
20010000  __STACK_END                                                                                                                                           
00000400  __STACK_SIZE                                                                                                                                          
000000b9  __TARG__                                                                                                                                              
00019270  __TI_CINIT_Base                                                                                                                                       
00019280  __TI_CINIT_Limit                                                                                                                                      
0001925c  __TI_Handler_Table_Base                                                                                                                               
00019268  __TI_Handler_Table_Limit                                                                                                                              
0000e2cd  __TI_auto_init                                                                                                                                        
2000b634  __TI_cleanup_ptr                                                                                                                                      
0001033d  __TI_decompress_lzss                                                                                                                                  
0001538d  __TI_decompress_none                                                                                                                                  
2000b638  __TI_dtors_ptr                                                                                                                                        
2000b63c  __TI_enable_exit_profile_output                                                                                                                       
00011305  __TI_ltoa                                                                                                                                             
ffffffff  __TI_pprof_out_hndl                                                                                                                                   
00000f01  __TI_printfi                                                                                                                                          
ffffffff  __TI_prof_data_size                                                                                                                                   
ffffffff  __TI_prof_data_start                                                                                                                                  
00012d85  __TI_readmsg                                                                                                                                          
00018d88  __TI_static_base__                                                                                                                                    
000129f1  __TI_writemsg                                                                                                                                         
0001548d  __TI_zero_init                                                                                                                                        
000000df  __TRDR__                                                                                                                                              
00012db9  __aeabi_atexit                                                                                                                                        
0000f259  __aeabi_cdcmpeq                                                                                                                                       
0000f259  __aeabi_cdcmple                                                                                                                                       
0000f2df  __aeabi_cdrcmple                                                                                                                                      
0000ff6d  __aeabi_d2f                                                                                                                                           
00011cd1  __aeabi_d2iz                                                                                                                                          
00012201  __aeabi_d2uiz                                                                                                                                         
0000875f  __aeabi_dadd                                                                                                                                          
0000a82d  __aeabi_ddiv                                                                                                                                          
0000bac9  __aeabi_dmul                                                                                                                                          
00008755  __aeabi_dsub                                                                                                                                          
00015699  __aeabi_errno_addr                                                                                                                                    
00012a99  __aeabi_f2d                                                                                                                                           
000135af  __aeabi_i2d                                                                                                                                           
00006573  __aeabi_idiv0                                                                                                                                         
00006573  __aeabi_ldiv0                                                                                                                                         
0000ffdb  __aeabi_ldivmod                                                                                                                                       
00014b55  __aeabi_lmul                                                                                                                                          
0000fa6f  __aeabi_memclr                                                                                                                                        
0000fa6f  __aeabi_memclr4                                                                                                                                       
0000fa6f  __aeabi_memclr8                                                                                                                                       
0000e545  __aeabi_memcpy                                                                                                                                        
0000e545  __aeabi_memcpy4                                                                                                                                       
0000e545  __aeabi_memcpy8                                                                                                                                       
0000fa71  __aeabi_memset                                                                                                                                        
0000fa71  __aeabi_memset4                                                                                                                                       
0000fa71  __aeabi_memset8                                                                                                                                       
00014489  __aeabi_ui2d                                                                                                                                          
00012629  __aeabi_uidiv                                                                                                                                         
00012629  __aeabi_uidivmod                                                                                                                                      
0000e715  __aeabi_uldivmod                                                                                                                                      
ffffffff  __binit__                                                                                                                                             
ffffffff  __c_args__                                                                                                                                            
00015469  __cxa_finalize                                                                                                                                        
0000f873  __cxa_guard_abort                                                                                                                                     
0000f849  __cxa_guard_acquire                                                                                                                                   
0000f863  __cxa_guard_release                                                                                                                                   
00013f7b  __cxa_ia64_exit                                                                                                                                       
0000f87d  __cxa_pure_virtual                                                                                                                                    
2000a7b4  __dso_handle                                                                                                                                          
00005db1  __mktime32                                                                                                                                            
20008140  __primary_heap_end__                                                                                                                                  
20000140  __primary_heap_start__                                                                                                                                
2000fc00  __stack                                                                                                                                               
20000000  __start___llvm_prf_cnts                                                                                                                               
000091f5  __sti___13_IPAddress_cpp_01cfe82d                                                                                                                     
0001405d  __sti___15_ConnService_cpp_3cccaf97                                                                                                                   
0000b321  __sti___17_SerialObjects_cpp_fff8a874                                                                                                                 
00012a29  __sti___9_Airio_cpp_gps                                                                                                                               
20000000  __stop___llvm_prf_cnts                                                                                                                                
00014b0d  _args_main                                                                                                                                            
00010ea1  _c_int00                                                                                                                                              
00017b00  _ctypes_                                                                                                                                              
2000b6a0  _lock                                                                                                                                                 
00008ac1  _ltoa                                                                                                                                                 
00005b07  _nop                                                                                                                                                  
000138a9  _pthread_cleanupFxn                                                                                                                                   
00015475  _register_lock                                                                                                                                        
00015481  _register_unlock                                                                                                                                      
2000b604  _tz                                                                                                                                                   
2000b6a4  _unlock                                                                                                                                               
0000b155  abort                                                                                                                                                 
2000a8b0  adcMSP432HWAttrs                                                                                                                                      
2000a714  adcMSP432Objects                                                                                                                                      
00004121  analogReadResolution                                                                                                                                  
2000b69c  analogReadShift                                                                                                                                       
00004071  analogReference                                                                                                                                       
00003d01  analogWrite                                                                                                                                           
00011731  atoi                                                                                                                                                  
0001177d  atol                                                                                                                                                  
ffffffff  binit                                                                                                                                                 
2000b730  board                                                                                                                                                 
2000a5e8  connection                                                                                                                                            
000117c9  copy_in                                                                                                                                               
0001494b  copysign                                                                                                                                              
0001494b  copysignl                                                                                                                                             
00006e0f  delay                                                                                                                                                 
00006cfd  delayMicroseconds                                                                                                                                     
0000a2bf  digitalRead                                                                                                                                           
0000a2ed  digitalWrite                                                                                                                                          
00017e84  digital_pin_to_adc_index                                                                                                                              
2000b280  digital_pin_to_pin_function                                                                                                                           
2000b2d2  digital_pin_to_pwm_index                                                                                                                              
00011c89  exit                                                                                                                                                  
2000b614  fixed_map_pwm_pins                                                                                                                                    
00014965  free                                                                                                                                                  
00010611  frexp                                                                                                                                                 
00010611  frexpl                                                                                                                                                
2000b6b8  func_ptr                                                                                                                                              
0000a323  getCpuFrequency                                                                                                                                       
00006eb5  getSpiInfo                                                                                                                                            
2000aa30  gpioCallbackFunctions                                                                                                                                 
2000ab78  gpioPinConfigs                                                                                                                                        
2000a300  gps                                                                                                                                                   
00015149  isdigit                                                                                                                                               
00015159  isspace                                                                                                                                               
00015169  isxdigit                                                                                                                                              
00008aad  itoa                                                                                                                                                  
0000b385  ldexp                                                                                                                                                 
0000b385  ldexpl                                                                                                                                                
0000e841  main                                                                                                                                                  
2000b738  main_func_sp                                                                                                                                          
000135dd  malloc                                                                                                                                                
2000b538  mapped_pwm_pin_ccrs                                                                                                                                   
000147f5  memccpy                                                                                                                                               
00014081  memcmp                                                                                                                                                
0000e545  memcpy                                                                                                                                                
00013dd1  memmove                                                                                                                                               
0000fa77  memset                                                                                                                                                
00006cb9  micros                                                                                                                                                
00006cf5  millis                                                                                                                                                
00005db1  mktime                                                                                                                                                
0000a1f9  mode2gpioConfig                                                                                                                                       
00018590  myADCMSP432_fxnTable                                                                                                                                  
00018214  myPWMTimerMSP432_fxnTable                                                                                                                             
20009180  myTransfer                                                                                                                                            
00018128  myUARTMSP432_fxnTable                                                                                                                                 
2000a778  parmbuf                                                                                                                                               
0000a26d  pinMode                                                                                                                                               
00001951  pow                                                                                                                                                   
00001951  powl                                                                                                                                                  
2000b1cc  pwmTimerMSP432HWAttrs                                                                                                                                 
2000a3d8  pwmTimerMSP432Objects                                                                                                                                 
00018983  pxmap                                                                                                                                                 
000126e7  realloc                                                                                                                                               
0000b385  scalbn                                                                                                                                                
0000b385  scalbnl                                                                                                                                               
2000b698  servoTimerId                                                                                                                                          
00006e7d  setDelayResolution                                                                                                                                    
00012669  sprintf                                                                                                                                               
000098ed  sqrt                                                                                                                                                  
000098ed  sqrtl                                                                                                                                                 
000040f1  stopAnalogRead                                                                                                                                        
00003f55  stopAnalogWrite                                                                                                                                       
00003ce9  stopDigitalRead                                                                                                                                       
00003cf5  stopDigitalWrite                                                                                                                                      
00014d55  strchr                                                                                                                                                
00014b6d  strcmp                                                                                                                                                
00014eb1  strcpy                                                                                                                                                
00014ec5  strlen                                                                                                                                                
000138d5  strncmp                                                                                                                                               
00012b77  strncpy                                                                                                                                               
00014b85  strrchr                                                                                                                                               
00012e25  strstr                                                                                                                                                
0000a965  strtol                                                                                                                                                
2000b73c  taskNames                                                                                                                                             
2000b514  ti_sysbios_BIOS_Module__state__V                                                                                                                      
000139b9  ti_sysbios_BIOS_RtsGateProxy_Handle__label__S                                                                                                         
0000b495  ti_sysbios_BIOS_RtsGateProxy_enter__E                                                                                                                 
0000b8c5  ti_sysbios_BIOS_RtsGateProxy_leave__E                                                                                                                 
000156a9  ti_sysbios_BIOS_RtsGateProxy_query__E                                                                                                                 
00013225  ti_sysbios_BIOS_atExitFunc__I                                                                                                                         
000140a5  ti_sysbios_BIOS_errorRaiseHook__I                                                                                                                     
00014d6b  ti_sysbios_BIOS_exitFunc__I                                                                                                                           
00015189  ti_sysbios_BIOS_getCpuFreq__E                                                                                                                         
000156c1  ti_sysbios_BIOS_linkedWithIncorrectBootLibrary__E                                                                                                     
0000890b  ti_sysbios_BIOS_nullFunc__I                                                                                                                           
000140c9  ti_sysbios_BIOS_registerRTSLock__I                                                                                                                    
000140ed  ti_sysbios_BIOS_removeRTSLock__I                                                                                                                      
000144a9  ti_sysbios_BIOS_rtsLock__I                                                                                                                            
00014b9d  ti_sysbios_BIOS_rtsUnlock__I                                                                                                                          
00015199  ti_sysbios_BIOS_setCpuFreq__E                                                                                                                         
000151a9  ti_sysbios_BIOS_setThreadType__E                                                                                                                      
00012e59  ti_sysbios_BIOS_startFunc__I                                                                                                                          
000151b9  ti_sysbios_BIOS_start__E                                                                                                                              
00018a48  ti_sysbios_family_arm_m3_Hwi_E_NMI__C                                                                                                                 
00018a4c  ti_sysbios_family_arm_m3_Hwi_E_alreadyDefined__C                                                                                                      
00018a50  ti_sysbios_family_arm_m3_Hwi_E_badIntNum__C                                                                                                           
00018a54  ti_sysbios_family_arm_m3_Hwi_E_busFault__C                                                                                                            
00018a58  ti_sysbios_family_arm_m3_Hwi_E_debugMon__C                                                                                                            
00018a5c  ti_sysbios_family_arm_m3_Hwi_E_hardFault__C                                                                                                           
00018a60  ti_sysbios_family_arm_m3_Hwi_E_memFault__C                                                                                                            
00018a64  ti_sysbios_family_arm_m3_Hwi_E_noIsr__C                                                                                                               
00018a68  ti_sysbios_family_arm_m3_Hwi_E_reserved__C                                                                                                            
00018a6c  ti_sysbios_family_arm_m3_Hwi_E_svCall__C                                                                                                              
00018a70  ti_sysbios_family_arm_m3_Hwi_E_usageFault__C                                                                                                          
00013901  ti_sysbios_family_arm_m3_Hwi_Handle__label__S                                                                                                         
000127a1  ti_sysbios_family_arm_m3_Hwi_Instance_finalize__E                                                                                                     
0000d9a1  ti_sysbios_family_arm_m3_Hwi_Instance_init__E                                                                                                         
00018a74  ti_sysbios_family_arm_m3_Hwi_LD_end__C                                                                                                                
00018a78  ti_sysbios_family_arm_m3_Hwi_LM_begin__C                                                                                                              
2000b768  ti_sysbios_family_arm_m3_Hwi_Module_State_0_excActive__A                                                                                              
2000b740  ti_sysbios_family_arm_m3_Hwi_Module_State_0_excContext__A                                                                                             
2000b744  ti_sysbios_family_arm_m3_Hwi_Module_State_0_excStack__A                                                                                               
00018a7c  ti_sysbios_family_arm_m3_Hwi_Module__diagsEnabled__C                                                                                                  
00018a80  ti_sysbios_family_arm_m3_Hwi_Module__diagsIncluded__C                                                                                                 
00018a84  ti_sysbios_family_arm_m3_Hwi_Module__diagsMask__C                                                                                                     
00018a22  ti_sysbios_family_arm_m3_Hwi_Module__id__C                                                                                                            
00018d30  ti_sysbios_family_arm_m3_Hwi_Module__loggerDefined__C                                                                                                 
00018a88  ti_sysbios_family_arm_m3_Hwi_Module__loggerFxn1__C                                                                                                    
00018a8c  ti_sysbios_family_arm_m3_Hwi_Module__loggerFxn8__C                                                                                                    
00018a90  ti_sysbios_family_arm_m3_Hwi_Module__loggerObj__C                                                                                                     
2000b6c8  ti_sysbios_family_arm_m3_Hwi_Module__root__V                                                                                                          
00014bb5  ti_sysbios_family_arm_m3_Hwi_Module__startupDone__F                                                                                                   
00014bb5  ti_sysbios_family_arm_m3_Hwi_Module__startupDone__S                                                                                                   
2000b3f8  ti_sysbios_family_arm_m3_Hwi_Module__state__V                                                                                                         
00011641  ti_sysbios_family_arm_m3_Hwi_Module_startup__E                                                                                                        
00018a94  ti_sysbios_family_arm_m3_Hwi_NUM_INTERRUPTS__C                                                                                                        
00018370  ti_sysbios_family_arm_m3_Hwi_Object__DESC__C                                                                                                          
000180f8  ti_sysbios_family_arm_m3_Hwi_Object__PARAMS__C                                                                                                        
00018a98  ti_sysbios_family_arm_m3_Hwi_Object__count__C                                                                                                         
000144c9  ti_sysbios_family_arm_m3_Hwi_Object__delete__S                                                                                                        
00014ed9  ti_sysbios_family_arm_m3_Hwi_Object__get__S                                                                                                           
2000b42c  ti_sysbios_family_arm_m3_Hwi_Object__table__V                                                                                                         
00015499  ti_sysbios_family_arm_m3_Hwi_Params__init__S                                                                                                          
00018a9c  ti_sysbios_family_arm_m3_Hwi_ccr__C                                                                                                                   
00011359  ti_sysbios_family_arm_m3_Hwi_create                                                                                                                   
0000bbc5  ti_sysbios_family_arm_m3_Hwi_delete                                                                                                                   
000154a9  ti_sysbios_family_arm_m3_Hwi_disableFxn__E                                                                                                            
00011d19  ti_sysbios_family_arm_m3_Hwi_disableInterrupt__E                                                                                                      
00009f79  ti_sysbios_family_arm_m3_Hwi_dispatchC__I                                                                                                             
20009f90  ti_sysbios_family_arm_m3_Hwi_dispatchTable                                                                                                            
0000bdb5  ti_sysbios_family_arm_m3_Hwi_dispatch__I                                                                                                              
00015639  ti_sysbios_family_arm_m3_Hwi_doSwiRestore__I                                                                                                          
00015659  ti_sysbios_family_arm_m3_Hwi_doTaskRestore__I                                                                                                         
00011d61  ti_sysbios_family_arm_m3_Hwi_enableInterrupt__E                                                                                                       
00008c41  ti_sysbios_family_arm_m3_Hwi_excBusFault__I                                                                                                           
0000c751  ti_sysbios_family_arm_m3_Hwi_excDebugMon__I                                                                                                           
00004169  ti_sysbios_family_arm_m3_Hwi_excDumpRegs__I                                                                                                           
00013df9  ti_sysbios_family_arm_m3_Hwi_excHandlerAsm__I                                                                                                         
00018aa0  ti_sysbios_family_arm_m3_Hwi_excHandlerFunc__C                                                                                                        
00007fd1  ti_sysbios_family_arm_m3_Hwi_excHandlerMax__I                                                                                                         
00014811  ti_sysbios_family_arm_m3_Hwi_excHandler__I                                                                                                            
0000c821  ti_sysbios_family_arm_m3_Hwi_excHardFault__I                                                                                                          
000189bc  ti_sysbios_family_arm_m3_Hwi_excHookFuncs__A                                                                                                          
00018aa4  ti_sysbios_family_arm_m3_Hwi_excHookFuncs__C                                                                                                          
00009791  ti_sysbios_family_arm_m3_Hwi_excMemFault__I                                                                                                           
00012249  ti_sysbios_family_arm_m3_Hwi_excNmi__I                                                                                                                
00011da9  ti_sysbios_family_arm_m3_Hwi_excNoIsr__I                                                                                                              
00010f51  ti_sysbios_family_arm_m3_Hwi_excReserved__I                                                                                                           
00011861  ti_sysbios_family_arm_m3_Hwi_excSvCall__I                                                                                                             
00008dc1  ti_sysbios_family_arm_m3_Hwi_excUsageFault__I                                                                                                         
00012291  ti_sysbios_family_arm_m3_Hwi_getStackInfo__E                                                                                                          
0000e8d9  ti_sysbios_family_arm_m3_Hwi_initNVIC__E                                                                                                              
00010fa9  ti_sysbios_family_arm_m3_Hwi_initStacks__E                                                                                                            
0000be89  ti_sysbios_family_arm_m3_Hwi_interruptsAreDisabledButShouldNotBe                                                                                      
00018aa8  ti_sysbios_family_arm_m3_Hwi_nullIsrFunc__C                                                                                                           
e000e000  ti_sysbios_family_arm_m3_Hwi_nvic                                                                                                                     
00013f55  ti_sysbios_family_arm_m3_Hwi_pendSV__I                                                                                                                
0000f4f1  ti_sysbios_family_arm_m3_Hwi_postInit__I                                                                                                              
00018aac  ti_sysbios_family_arm_m3_Hwi_priGroup__C                                                                                                              
20000000  ti_sysbios_family_arm_m3_Hwi_ramVectors                                                                                                               
00000000  ti_sysbios_family_arm_m3_Hwi_resetVectors                                                                                                             
00015661  ti_sysbios_family_arm_m3_Hwi_restoreFxn__E                                                                                                            
00013f79  ti_sysbios_family_arm_m3_Hwi_return                                                                                                                   
00015641  ti_sysbios_family_arm_m3_Hwi_startup__E                                                                                                               
00018ab0  ti_sysbios_family_arm_m3_Hwi_swiDisable__C                                                                                                            
00018ab4  ti_sysbios_family_arm_m3_Hwi_swiRestore__C                                                                                                            
00014ef1  ti_sysbios_family_arm_m3_Hwi_switchFromBootStack__E                                                                                                   
0000cb55  ti_sysbios_family_arm_m3_TaskSupport_Module__startupDone__S                                                                                           
0000ee89  ti_sysbios_family_arm_m3_TaskSupport_buildTaskStack                                                                                                   
000154b9  ti_sysbios_family_arm_m3_TaskSupport_checkStack__E                                                                                                    
000154c9  ti_sysbios_family_arm_m3_TaskSupport_getStackAlignment__E                                                                                             
000151c9  ti_sysbios_family_arm_m3_TaskSupport_glue                                                                                                             
00018ab8  ti_sysbios_family_arm_m3_TaskSupport_stackAlignment__C                                                                                                
00013259  ti_sysbios_family_arm_m3_TaskSupport_start__E                                                                                                         
00014bcd  ti_sysbios_family_arm_m3_TaskSupport_swap__E                                                                                                          
00018abc  ti_sysbios_family_arm_m3_Timer_E_cannotSupport__C                                                                                                     
00018d32  ti_sysbios_family_arm_m3_Timer_Module__id__C                                                                                                          
00014be5  ti_sysbios_family_arm_m3_Timer_Module__startupDone__F                                                                                                 
00014be5  ti_sysbios_family_arm_m3_Timer_Module__startupDone__S                                                                                                 
2000b64c  ti_sysbios_family_arm_m3_Timer_Module__state__V                                                                                                       
00012e91  ti_sysbios_family_arm_m3_Timer_Module_startup__E                                                                                                      
2000b45c  ti_sysbios_family_arm_m3_Timer_Object__table__V                                                                                                       
00011df1  ti_sysbios_family_arm_m3_Timer_initDevice__I                                                                                                          
00012ec9  ti_sysbios_family_arm_m3_Timer_periodicStub__I                                                                                                        
00011001  ti_sysbios_family_arm_m3_Timer_setPeriod__E                                                                                                           
00010b11  ti_sysbios_family_arm_m3_Timer_start__E                                                                                                               
00018ac0  ti_sysbios_family_arm_m3_Timer_startupNeeded__C                                                                                                       
00014111  ti_sysbios_family_arm_m3_Timer_startup__E                                                                                                             
2000b748  ti_sysbios_family_arm_m3_TimestampProvider_Module__state__V                                                                                           
00013931  ti_sysbios_family_arm_m3_TimestampProvider_Module_startup__E                                                                                          
000109f1  ti_sysbios_family_arm_m3_TimestampProvider_get32__E                                                                                                   
0000f701  ti_sysbios_family_arm_m3_TimestampProvider_get64__E                                                                                                   
00015189  ti_sysbios_family_arm_m3_TimestampProvider_getFreq__E                                                                                                 
000156c9  ti_sysbios_family_arm_m3_TimestampProvider_rolloverFunc__E                                                                                            
2000b658  ti_sysbios_family_arm_msp432_ClockFreqs_Module__state__V                                                                                              
00014139  ti_sysbios_family_arm_msp432_ClockFreqs_setFrequency__E                                                                                               
000127e1  ti_sysbios_family_arm_msp432_Seconds_Module_startup__E                                                                                                
0001882c  ti_sysbios_family_arm_msp432_Seconds_daysPerMonthLeap__A                                                                                              
00018ac4  ti_sysbios_family_arm_msp432_Seconds_daysPerMonthLeap__C                                                                                              
00018838  ti_sysbios_family_arm_msp432_Seconds_daysPerMonthNonLeap__A                                                                                           
00018ac8  ti_sysbios_family_arm_msp432_Seconds_daysPerMonthNonLeap__C                                                                                           
000100b9  ti_sysbios_family_arm_msp432_Seconds_get__E                                                                                                           
00009ce9  ti_sysbios_family_arm_msp432_Seconds_set__E                                                                                                           
2000b558  ti_sysbios_family_arm_msp432_Timer_Module_State_0_device__A                                                                                           
2000b624  ti_sysbios_family_arm_msp432_Timer_Module_State_0_handles__A                                                                                          
00014bfd  ti_sysbios_family_arm_msp432_Timer_Module__startupDone__F                                                                                             
00014bfd  ti_sysbios_family_arm_msp432_Timer_Module__startupDone__S                                                                                             
2000b664  ti_sysbios_family_arm_msp432_Timer_Module__state__V                                                                                                   
0000f149  ti_sysbios_family_arm_msp432_Timer_Module_startup__E                                                                                                  
2000b370  ti_sysbios_family_arm_msp432_Timer_Object__table__V                                                                                                   
000154d9  ti_sysbios_family_arm_msp432_Timer_getAvailMask__E                                                                                                    
000154e9  ti_sysbios_family_arm_msp432_Timer_getMaxTicks__E                                                                                                     
000113b1  ti_sysbios_family_arm_msp432_Timer_initDevice__I                                                                                                      
00018acc  ti_sysbios_family_arm_msp432_Timer_numTimerDevices__C                                                                                                 
0000dcf9  ti_sysbios_family_arm_msp432_Timer_periodicStub__E                                                                                                    
000118b1  ti_sysbios_family_arm_msp432_Timer_setAvailMask__E                                                                                                    
00011901  ti_sysbios_family_arm_msp432_Timer_start__E                                                                                                           
00018ad0  ti_sysbios_family_arm_msp432_Timer_startupNeeded__C                                                                                                   
0000f781  ti_sysbios_family_arm_msp432_Timer_startup__E                                                                                                         
00013961  ti_sysbios_family_arm_msp432_Timer_stop__E                                                                                                            
00018d34  ti_sysbios_family_arm_msp432_init_Boot_bypassHFXT__C                                                                                                  
00018d36  ti_sysbios_family_arm_msp432_init_Boot_bypassLFXT__C                                                                                                  
0000bbc9  ti_sysbios_family_arm_msp432_init_Boot_configureClocksHigh                                                                                            
000151d9  ti_sysbios_family_arm_msp432_init_Boot_disableWatchdog                                                                                                
00018d38  ti_sysbios_family_arm_msp432_init_Boot_enableHFXT__C                                                                                                  
00018d3a  ti_sysbios_family_arm_msp432_init_Boot_enableLFXT__C                                                                                                  
000149ed  ti_sysbios_family_arm_msp432_init_Boot_init__I                                                                                                        
000146f5  ti_sysbios_family_xxx_Hwi_switchAndRunFunc                                                                                                            
0001398d  ti_sysbios_gates_GateHwi_Handle__label__S                                                                                                             
000156d1  ti_sysbios_gates_GateHwi_Instance_init__E                                                                                                             
00018238  ti_sysbios_gates_GateHwi_Module__FXNS__C                                                                                                              
2000b6d0  ti_sysbios_gates_GateHwi_Module__root__V                                                                                                              
00018390  ti_sysbios_gates_GateHwi_Object__DESC__C                                                                                                              
000185a8  ti_sysbios_gates_GateHwi_Object__PARAMS__C                                                                                                            
00013289  ti_sysbios_gates_GateHwi_Object__create__S                                                                                                            
000144e9  ti_sysbios_gates_GateHwi_Object__delete__S                                                                                                            
2000b74c  ti_sysbios_gates_GateHwi_Object__table__V                                                                                                             
000154f9  ti_sysbios_gates_GateHwi_enter__E                                                                                                                     
00015669  ti_sysbios_gates_GateHwi_leave__E                                                                                                                     
000156a1  ti_sysbios_gates_GateHwi_query__E                                                                                                                     
00018ad4  ti_sysbios_gates_GateMutex_A_badContext__C                                                                                                            
000139b9  ti_sysbios_gates_GateMutex_Handle__label__S                                                                                                           
00018ad8  ti_sysbios_gates_GateMutex_Instance_State_sem__O                                                                                                      
000151e9  ti_sysbios_gates_GateMutex_Instance_finalize__E                                                                                                       
00014831  ti_sysbios_gates_GateMutex_Instance_init__E                                                                                                           
0001825c  ti_sysbios_gates_GateMutex_Module__FXNS__C                                                                                                            
00018adc  ti_sysbios_gates_GateMutex_Module__diagsEnabled__C                                                                                                    
00018ae0  ti_sysbios_gates_GateMutex_Module__diagsIncluded__C                                                                                                   
00018ae4  ti_sysbios_gates_GateMutex_Module__diagsMask__C                                                                                                       
00018d3c  ti_sysbios_gates_GateMutex_Module__id__C                                                                                                              
2000b6d8  ti_sysbios_gates_GateMutex_Module__root__V                                                                                                            
000183b0  ti_sysbios_gates_GateMutex_Object__DESC__C                                                                                                            
000185c0  ti_sysbios_gates_GateMutex_Object__PARAMS__C                                                                                                          
000132b9  ti_sysbios_gates_GateMutex_Object__create__S                                                                                                          
0001415d  ti_sysbios_gates_GateMutex_Object__delete__S                                                                                                          
2000b22c  ti_sysbios_gates_GateMutex_Object__table__V                                                                                                           
000139e5  ti_sysbios_gates_GateMutex_construct                                                                                                                  
0000d2b1  ti_sysbios_gates_GateMutex_enter__E                                                                                                                   
00014c19  ti_sysbios_gates_GateMutex_leave__E                                                                                                                   
000156a9  ti_sysbios_gates_GateMutex_query__E                                                                                                                   
00018ae8  ti_sysbios_hal_Hwi_E_stackOverflow__C                                                                                                                 
00013901  ti_sysbios_hal_Hwi_HwiProxy_Handle__label__S                                                                                                          
00014bb5  ti_sysbios_hal_Hwi_HwiProxy_Module__startupDone__S                                                                                                    
00015499  ti_sysbios_hal_Hwi_HwiProxy_Params__init__S                                                                                                           
00011d19  ti_sysbios_hal_Hwi_HwiProxy_disableInterrupt__E                                                                                                       
000154a9  ti_sysbios_hal_Hwi_HwiProxy_disable__E                                                                                                                
00011d61  ti_sysbios_hal_Hwi_HwiProxy_enableInterrupt__E                                                                                                        
00012291  ti_sysbios_hal_Hwi_HwiProxy_getStackInfo__E                                                                                                           
00015661  ti_sysbios_hal_Hwi_HwiProxy_restore__E                                                                                                                
00015641  ti_sysbios_hal_Hwi_HwiProxy_startup__E                                                                                                                
00014ef1  ti_sysbios_hal_Hwi_HwiProxy_switchFromBootStack__E                                                                                                    
00018d3e  ti_sysbios_hal_Hwi_Module__id__C                                                                                                                      
00015061  ti_sysbios_hal_Hwi_Module_startup__E                                                                                                                  
00012f01  ti_sysbios_hal_Hwi_checkStack                                                                                                                         
00011d19  ti_sysbios_hal_Hwi_disableInterrupt__E                                                                                                                
00011d61  ti_sysbios_hal_Hwi_enableInterrupt__E                                                                                                                 
00012291  ti_sysbios_hal_Hwi_getStackInfo__E                                                                                                                    
00013069  ti_sysbios_hal_Hwi_initStack                                                                                                                          
00015641  ti_sysbios_hal_Hwi_startup__E                                                                                                                         
00014ef1  ti_sysbios_hal_Hwi_switchFromBootStack__E                                                                                                             
000100b9  ti_sysbios_hal_Seconds_SecondsProxy_get__E                                                                                                            
00009ce9  ti_sysbios_hal_Seconds_SecondsProxy_set__E                                                                                                            
000100b9  ti_sysbios_hal_Seconds_get__E                                                                                                                         
00009ce9  ti_sysbios_hal_Seconds_set__E                                                                                                                         
00018aec  ti_sysbios_heaps_HeapMem_A_align__C                                                                                                                   
00018af0  ti_sysbios_heaps_HeapMem_A_heapSize__C                                                                                                                
00018af4  ti_sysbios_heaps_HeapMem_A_invalidFree__C                                                                                                             
00018af8  ti_sysbios_heaps_HeapMem_A_zeroBlock__C                                                                                                               
00018afc  ti_sysbios_heaps_HeapMem_E_memory__C                                                                                                                  
00013a11  ti_sysbios_heaps_HeapMem_Handle__label__S                                                                                                             
0000a471  ti_sysbios_heaps_HeapMem_Instance_init__E                                                                                                             
000139b9  ti_sysbios_heaps_HeapMem_Module_GateProxy_Handle__label__S                                                                                            
0000cf15  ti_sysbios_heaps_HeapMem_Module_GateProxy_enter__E                                                                                                    
0000d2ad  ti_sysbios_heaps_HeapMem_Module_GateProxy_leave__E                                                                                                    
000156a9  ti_sysbios_heaps_HeapMem_Module_GateProxy_query__E                                                                                                    
00018150  ti_sysbios_heaps_HeapMem_Module__FXNS__C                                                                                                              
00018b00  ti_sysbios_heaps_HeapMem_Module__diagsEnabled__C                                                                                                      
00018b04  ti_sysbios_heaps_HeapMem_Module__diagsIncluded__C                                                                                                     
00018b08  ti_sysbios_heaps_HeapMem_Module__diagsMask__C                                                                                                         
00018b0c  ti_sysbios_heaps_HeapMem_Module__gateObj__C                                                                                                           
00018d40  ti_sysbios_heaps_HeapMem_Module__id__C                                                                                                                
2000b6e0  ti_sysbios_heaps_HeapMem_Module__root__V                                                                                                              
000183d0  ti_sysbios_heaps_HeapMem_Object__DESC__C                                                                                                              
00018280  ti_sysbios_heaps_HeapMem_Object__PARAMS__C                                                                                                            
00018b10  ti_sysbios_heaps_HeapMem_Object__count__C                                                                                                             
000132e9  ti_sysbios_heaps_HeapMem_Object__create__S                                                                                                            
00014509  ti_sysbios_heaps_HeapMem_Object__delete__S                                                                                                            
00014f05  ti_sysbios_heaps_HeapMem_Object__get__S                                                                                                               
2000b5d4  ti_sysbios_heaps_HeapMem_Object__table__V                                                                                                             
00007bd9  ti_sysbios_heaps_HeapMem_allocUnprotected__E                                                                                                          
00011059  ti_sysbios_heaps_HeapMem_alloc__E                                                                                                                     
00006a71  ti_sysbios_heaps_HeapMem_freeUnprotected__E                                                                                                           
00013319  ti_sysbios_heaps_HeapMem_free__E                                                                                                                      
00011951  ti_sysbios_heaps_HeapMem_getStats__E                                                                                                                  
0000fe21  ti_sysbios_heaps_HeapMem_initPrimary__I                                                                                                               
00015671  ti_sysbios_heaps_HeapMem_isBlocking__E                                                                                                                
00018b14  ti_sysbios_heaps_HeapMem_primaryHeapBaseAddr__C                                                                                                       
00018b18  ti_sysbios_heaps_HeapMem_primaryHeapEndAddr__C                                                                                                        
00018b1c  ti_sysbios_heaps_HeapMem_reqAlign__C                                                                                                                  
00018b20  ti_sysbios_heaps_HeapTrack_A_bufOverflow__C                                                                                                           
00018b24  ti_sysbios_heaps_HeapTrack_A_doubleFree__C                                                                                                            
00018b28  ti_sysbios_heaps_HeapTrack_A_notEmpty__C                                                                                                              
00013a3d  ti_sysbios_heaps_HeapTrack_Handle__label__S                                                                                                           
00018b2c  ti_sysbios_heaps_HeapTrack_Instance_State_trackQueue__O                                                                                               
0000ef19  ti_sysbios_heaps_HeapTrack_Instance_finalize__E                                                                                                       
00014181  ti_sysbios_heaps_HeapTrack_Instance_init__E                                                                                                           
00018178  ti_sysbios_heaps_HeapTrack_Module__FXNS__C                                                                                                            
00018b30  ti_sysbios_heaps_HeapTrack_Module__diagsEnabled__C                                                                                                    
00018b34  ti_sysbios_heaps_HeapTrack_Module__diagsIncluded__C                                                                                                   
00018b38  ti_sysbios_heaps_HeapTrack_Module__diagsMask__C                                                                                                       
00018d42  ti_sysbios_heaps_HeapTrack_Module__id__C                                                                                                              
2000b6e8  ti_sysbios_heaps_HeapTrack_Module__root__V                                                                                                            
000183f0  ti_sysbios_heaps_HeapTrack_Object__DESC__C                                                                                                            
00018540  ti_sysbios_heaps_HeapTrack_Object__PARAMS__C                                                                                                          
00013349  ti_sysbios_heaps_HeapTrack_Object__create__S                                                                                                          
000141a5  ti_sysbios_heaps_HeapTrack_Object__delete__S                                                                                                          
2000b578  ti_sysbios_heaps_HeapTrack_Object__table__V                                                                                                           
0000e971  ti_sysbios_heaps_HeapTrack_alloc__E                                                                                                                   
000094d1  ti_sysbios_heaps_HeapTrack_free__E                                                                                                                    
00013379  ti_sysbios_heaps_HeapTrack_getStats__E                                                                                                                
00015509  ti_sysbios_heaps_HeapTrack_isBlocking__E                                                                                                              
00018b3c  ti_sysbios_knl_Clock_A_badThreadType__C                                                                                                               
0000e039  ti_sysbios_knl_Clock_Instance_finalize__E                                                                                                             
0000b039  ti_sysbios_knl_Clock_Instance_init__E                                                                                                                 
00018b40  ti_sysbios_knl_Clock_LM_begin__C                                                                                                                      
00018b44  ti_sysbios_knl_Clock_LM_tick__C                                                                                                                       
00018b48  ti_sysbios_knl_Clock_LW_delayed__C                                                                                                                    
00018b4c  ti_sysbios_knl_Clock_Module_State_clockQ__O                                                                                                           
00018b50  ti_sysbios_knl_Clock_Module__diagsEnabled__C                                                                                                          
00018b54  ti_sysbios_knl_Clock_Module__diagsIncluded__C                                                                                                         
00018b58  ti_sysbios_knl_Clock_Module__diagsMask__C                                                                                                             
00018d44  ti_sysbios_knl_Clock_Module__id__C                                                                                                                    
00018d46  ti_sysbios_knl_Clock_Module__loggerDefined__C                                                                                                         
00018b5c  ti_sysbios_knl_Clock_Module__loggerFxn1__C                                                                                                            
00018b60  ti_sysbios_knl_Clock_Module__loggerFxn2__C                                                                                                            
00018b64  ti_sysbios_knl_Clock_Module__loggerObj__C                                                                                                             
2000b6f0  ti_sysbios_knl_Clock_Module__root__V                                                                                                                  
2000b4e8  ti_sysbios_knl_Clock_Module__state__V                                                                                                                 
000141c9  ti_sysbios_knl_Clock_Module_startup__E                                                                                                                
00018410  ti_sysbios_knl_Clock_Object__DESC__C                                                                                                                  
000182a4  ti_sysbios_knl_Clock_Object__PARAMS__C                                                                                                                
000141ed  ti_sysbios_knl_Clock_Object__delete__S                                                                                                                
00015515  ti_sysbios_knl_Clock_Params__init__S                                                                                                                  
00014bfd  ti_sysbios_knl_Clock_TimerProxy_Module__startupDone__S                                                                                                
0000d365  ti_sysbios_knl_Clock_TimerProxy_getMaxTicks__E                                                                                                        
0000da4d  ti_sysbios_knl_Clock_TimerProxy_start__E                                                                                                              
0000f781  ti_sysbios_knl_Clock_TimerProxy_startup__E                                                                                                            
0000dcf5  ti_sysbios_knl_Clock_TimerProxy_stop__E                                                                                                               
0001281d  ti_sysbios_knl_Clock_create                                                                                                                           
0000e0dd  ti_sysbios_knl_Clock_delete                                                                                                                           
00018b68  ti_sysbios_knl_Clock_doTickFunc__C                                                                                                                    
00013a69  ti_sysbios_knl_Clock_doTick__I                                                                                                                        
00015521  ti_sysbios_knl_Clock_getTicks__E                                                                                                                      
00015531  ti_sysbios_knl_Clock_getTimerHandle__E                                                                                                                
00010679  ti_sysbios_knl_Clock_logTick__E                                                                                                                       
000156b1  ti_sysbios_knl_Clock_setTimeout__E                                                                                                                    
0000fd39  ti_sysbios_knl_Clock_start__E                                                                                                                         
00015679  ti_sysbios_knl_Clock_stop__E                                                                                                                          
00018b6c  ti_sysbios_knl_Clock_tickPeriod__C                                                                                                                    
00014f19  ti_sysbios_knl_Clock_tick__E                                                                                                                          
00009e31  ti_sysbios_knl_Clock_workFunc__E                                                                                                                      
000186e0  ti_sysbios_knl_Idle_funcList__A                                                                                                                       
000189c4  ti_sysbios_knl_Idle_funcList__C                                                                                                                       
000153a1  ti_sysbios_knl_Idle_loop__E                                                                                                                           
00014529  ti_sysbios_knl_Idle_run__E                                                                                                                            
00018b70  ti_sysbios_knl_Mailbox_Instance_State_freeQue__O                                                                                                      
0000f1d1  ti_sysbios_knl_Mailbox_Module_startup__E                                                                                                              
00018b74  ti_sysbios_knl_Mailbox_Object__count__C                                                                                                               
000151f9  ti_sysbios_knl_Mailbox_Object__get__S                                                                                                                 
00018b78  ti_sysbios_knl_Mailbox_maxTypeAlign__C                                                                                                                
00015681  ti_sysbios_knl_Queue_Instance_init__E                                                                                                                 
2000b6f8  ti_sysbios_knl_Queue_Module__root__V                                                                                                                  
00018430  ti_sysbios_knl_Queue_Object__DESC__C                                                                                                                  
000185d8  ti_sysbios_knl_Queue_Object__PARAMS__C                                                                                                                
0001553d  ti_sysbios_knl_Queue_Object__get__S                                                                                                                   
00013a95  ti_sysbios_knl_Queue_construct                                                                                                                        
0001484d  ti_sysbios_knl_Queue_destruct                                                                                                                         
000153b1  ti_sysbios_knl_Queue_empty__E                                                                                                                         
00014869  ti_sysbios_knl_Queue_put__E                                                                                                                           
00018b7c  ti_sysbios_knl_Semaphore_A_badContext__C                                                                                                              
00018b80  ti_sysbios_knl_Semaphore_A_noEvents__C                                                                                                                
00018b84  ti_sysbios_knl_Semaphore_A_overflow__C                                                                                                                
00018b88  ti_sysbios_knl_Semaphore_A_pendTaskDisabled__C                                                                                                        
00018b8c  ti_sysbios_knl_Semaphore_Instance_State_pendQ__O                                                                                                      
00015209  ti_sysbios_knl_Semaphore_Instance_finalize__E                                                                                                         
0000e5e1  ti_sysbios_knl_Semaphore_Instance_init__E                                                                                                             
00018b90  ti_sysbios_knl_Semaphore_LM_pend__C                                                                                                                   
00018b94  ti_sysbios_knl_Semaphore_LM_post__C                                                                                                                   
00018b98  ti_sysbios_knl_Semaphore_Module__diagsEnabled__C                                                                                                      
00018b9c  ti_sysbios_knl_Semaphore_Module__diagsIncluded__C                                                                                                     
00018ba0  ti_sysbios_knl_Semaphore_Module__diagsMask__C                                                                                                         
00018d48  ti_sysbios_knl_Semaphore_Module__id__C                                                                                                                
00018d4a  ti_sysbios_knl_Semaphore_Module__loggerDefined__C                                                                                                     
00018ba4  ti_sysbios_knl_Semaphore_Module__loggerFxn2__C                                                                                                        
00018ba8  ti_sysbios_knl_Semaphore_Module__loggerFxn4__C                                                                                                        
00018bac  ti_sysbios_knl_Semaphore_Module__loggerObj__C                                                                                                         
2000b700  ti_sysbios_knl_Semaphore_Module__root__V                                                                                                              
00018450  ti_sysbios_knl_Semaphore_Object__DESC__C                                                                                                              
000182c8  ti_sysbios_knl_Semaphore_Object__PARAMS__C                                                                                                            
00014211  ti_sysbios_knl_Semaphore_Object__delete__S                                                                                                            
00015549  ti_sysbios_knl_Semaphore_Params__init__S                                                                                                              
000133a9  ti_sysbios_knl_Semaphore_construct                                                                                                                    
00012f35  ti_sysbios_knl_Semaphore_create                                                                                                                       
0000e185  ti_sysbios_knl_Semaphore_delete                                                                                                                       
00014549  ti_sysbios_knl_Semaphore_destruct                                                                                                                     
000130a1  ti_sysbios_knl_Semaphore_pendTimeout__I                                                                                                               
00004fb9  ti_sysbios_knl_Semaphore_pend__E                                                                                                                      
0000a5b1  ti_sysbios_knl_Semaphore_post__E                                                                                                                      
00013ac1  ti_sysbios_knl_Swi_Handle__label__S                                                                                                                   
00018bb0  ti_sysbios_knl_Swi_LD_end__C                                                                                                                          
00018bb4  ti_sysbios_knl_Swi_LM_begin__C                                                                                                                        
00018bb8  ti_sysbios_knl_Swi_LM_post__C                                                                                                                         
2000b0cc  ti_sysbios_knl_Swi_Module_State_0_readyQ__A                                                                                                           
00018bbc  ti_sysbios_knl_Swi_Module__diagsEnabled__C                                                                                                            
00018bc0  ti_sysbios_knl_Swi_Module__diagsIncluded__C                                                                                                           
00018bc4  ti_sysbios_knl_Swi_Module__diagsMask__C                                                                                                               
00018d4c  ti_sysbios_knl_Swi_Module__id__C                                                                                                                      
00018d4e  ti_sysbios_knl_Swi_Module__loggerDefined__C                                                                                                           
00018bc8  ti_sysbios_knl_Swi_Module__loggerFxn1__C                                                                                                              
00018bcc  ti_sysbios_knl_Swi_Module__loggerFxn4__C                                                                                                              
00018bd0  ti_sysbios_knl_Swi_Module__loggerObj__C                                                                                                               
2000b5b8  ti_sysbios_knl_Swi_Module__state__V                                                                                                                   
00013e21  ti_sysbios_knl_Swi_Module_startup__E                                                                                                                  
00018bd4  ti_sysbios_knl_Swi_Object__count__C                                                                                                                   
00014f2d  ti_sysbios_knl_Swi_Object__get__S                                                                                                                     
2000b48c  ti_sysbios_knl_Swi_Object__table__V                                                                                                                   
00015219  ti_sysbios_knl_Swi_disable__E                                                                                                                         
0000da51  ti_sysbios_knl_Swi_post__E                                                                                                                            
00010129  ti_sysbios_knl_Swi_restoreHwi__E                                                                                                                      
00012859  ti_sysbios_knl_Swi_restore__E                                                                                                                         
000119a1  ti_sysbios_knl_Swi_runLoop__I                                                                                                                         
0000abb9  ti_sysbios_knl_Swi_run__I                                                                                                                             
00010b71  ti_sysbios_knl_Swi_schedule__I                                                                                                                        
00015689  ti_sysbios_knl_Swi_startup__E                                                                                                                         
00018bd8  ti_sysbios_knl_Task_A_badPriority__C                                                                                                                  
00018bdc  ti_sysbios_knl_Task_A_badTaskState__C                                                                                                                 
00018be0  ti_sysbios_knl_Task_A_badThreadType__C                                                                                                                
00018be4  ti_sysbios_knl_Task_A_badTimeout__C                                                                                                                   
00018be8  ti_sysbios_knl_Task_A_noPendElem__C                                                                                                                   
00018bec  ti_sysbios_knl_Task_A_sleepTaskDisabled__C                                                                                                            
00018bf0  ti_sysbios_knl_Task_E_spOutOfBounds__C                                                                                                                
00018bf4  ti_sysbios_knl_Task_E_stackOverflow__C                                                                                                                
00013aed  ti_sysbios_knl_Task_Handle__label__S                                                                                                                  
2000a7b8  ti_sysbios_knl_Task_Instance_State_0_hookEnv__A                                                                                                       
20009398  ti_sysbios_knl_Task_Instance_State_0_stack__A                                                                                                         
00006051  ti_sysbios_knl_Task_Instance_finalize__E                                                                                                              
000081c9  ti_sysbios_knl_Task_Instance_init__E                                                                                                                  
00018bf8  ti_sysbios_knl_Task_LD_block__C                                                                                                                       
00018bfc  ti_sysbios_knl_Task_LD_exit__C                                                                                                                        
00018c00  ti_sysbios_knl_Task_LD_ready__C                                                                                                                       
00018c04  ti_sysbios_knl_Task_LM_sleep__C                                                                                                                       
00018c08  ti_sysbios_knl_Task_LM_switch__C                                                                                                                      
00018c0c  ti_sysbios_knl_Task_LM_yield__C                                                                                                                       
2000b750  ti_sysbios_knl_Task_Module_State_0_idleTask__A                                                                                                        
2000b14c  ti_sysbios_knl_Task_Module_State_0_readyQ__A                                                                                                          
00018c10  ti_sysbios_knl_Task_Module_State_inactiveQ__O                                                                                                         
00018c14  ti_sysbios_knl_Task_Module__diagsEnabled__C                                                                                                           
00018c18  ti_sysbios_knl_Task_Module__diagsIncluded__C                                                                                                          
00018c1c  ti_sysbios_knl_Task_Module__diagsMask__C                                                                                                              
00018d50  ti_sysbios_knl_Task_Module__id__C                                                                                                                     
00018d52  ti_sysbios_knl_Task_Module__loggerDefined__C                                                                                                          
00018c20  ti_sysbios_knl_Task_Module__loggerFxn2__C                                                                                                             
00018c24  ti_sysbios_knl_Task_Module__loggerFxn4__C                                                                                                             
00018c28  ti_sysbios_knl_Task_Module__loggerObj__C                                                                                                              
2000b670  ti_sysbios_knl_Task_Module__root__V                                                                                                                   
2000b3b4  ti_sysbios_knl_Task_Module__state__V                                                                                                                  
0000ebc1  ti_sysbios_knl_Task_Module_startup__E                                                                                                                 
00018470  ti_sysbios_knl_Task_Object__DESC__C                                                                                                                   
00017fb4  ti_sysbios_knl_Task_Object__PARAMS__C                                                                                                                 
00018c2c  ti_sysbios_knl_Task_Object__count__C                                                                                                                  
00014569  ti_sysbios_knl_Task_Object__delete__S                                                                                                                 
00015229  ti_sysbios_knl_Task_Object__get__S                                                                                                                    
00018c30  ti_sysbios_knl_Task_Object__heap__C                                                                                                                   
2000b324  ti_sysbios_knl_Task_Object__table__V                                                                                                                  
00015555  ti_sysbios_knl_Task_Params__init__S                                                                                                                   
0000cb55  ti_sysbios_knl_Task_SupportProxy_Module__startupDone__S                                                                                               
000154b9  ti_sysbios_knl_Task_SupportProxy_checkStack__E                                                                                                        
000154c9  ti_sysbios_knl_Task_SupportProxy_getStackAlignment__E                                                                                                 
00013259  ti_sysbios_knl_Task_SupportProxy_start__E                                                                                                             
00014bcd  ti_sysbios_knl_Task_SupportProxy_swap__E                                                                                                              
00018c34  ti_sysbios_knl_Task_allBlockedFunc__C                                                                                                                 
000119f1  ti_sysbios_knl_Task_allBlockedFunction__I                                                                                                             
0000dda1  ti_sysbios_knl_Task_blockI__E                                                                                                                         
0000d369  ti_sysbios_knl_Task_checkStacks__E                                                                                                                    
00011691  ti_sysbios_knl_Task_create                                                                                                                            
00018c38  ti_sysbios_knl_Task_defaultStackHeap__C                                                                                                               
00018c3c  ti_sysbios_knl_Task_defaultStackSize__C                                                                                                               
0000e8d5  ti_sysbios_knl_Task_delete                                                                                                                            
00015239  ti_sysbios_knl_Task_disable__E                                                                                                                        
00014889  ti_sysbios_knl_Task_enter__I                                                                                                                          
0000cb59  ti_sysbios_knl_Task_exit__E                                                                                                                           
000185f0  ti_sysbios_knl_Task_hooks__A                                                                                                                          
000189cc  ti_sysbios_knl_Task_hooks__C                                                                                                                          
00018c40  ti_sysbios_knl_Task_numConstructedTasks__C                                                                                                            
00018c44  ti_sysbios_knl_Task_numPriorities__C                                                                                                                  
0000b159  ti_sysbios_knl_Task_postInit__I                                                                                                                       
00012ad1  ti_sysbios_knl_Task_processVitalTaskFlag__I                                                                                                           
00014239  ti_sysbios_knl_Task_restoreHwi__E                                                                                                                     
000133d9  ti_sysbios_knl_Task_restore__E                                                                                                                        
0000c8f1  ti_sysbios_knl_Task_schedule__I                                                                                                                       
00015561  ti_sysbios_knl_Task_self__E                                                                                                                           
00014981  ti_sysbios_knl_Task_sleepTimeout__I                                                                                                                   
000077b9  ti_sysbios_knl_Task_sleep__E                                                                                                                          
0000ce59  ti_sysbios_knl_Task_startCore__E                                                                                                                      
000156b9  ti_sysbios_knl_Task_startup__E                                                                                                                        
00014bd9  ti_sysbios_knl_Task_swapReturn                                                                                                                        
0000ea09  ti_sysbios_knl_Task_unblockI__E                                                                                                                       
0000d589  ti_sysbios_knl_Task_yield__E                                                                                                                          
00018c48  ti_sysbios_rts_ti_ReentSupport_A_badThreadType__C                                                                                                     
00018c4c  ti_sysbios_rts_ti_ReentSupport_Module__diagsEnabled__C                                                                                                
00018c50  ti_sysbios_rts_ti_ReentSupport_Module__diagsIncluded__C                                                                                               
00018c54  ti_sysbios_rts_ti_ReentSupport_Module__diagsMask__C                                                                                                   
00018d54  ti_sysbios_rts_ti_ReentSupport_Module__id__C                                                                                                          
2000b754  ti_sysbios_rts_ti_ReentSupport_Module__state__V                                                                                                       
0000e0e1  ti_sysbios_rts_ti_ReentSupport_getReent__E                                                                                                            
0000e0e1  ti_sysbios_rts_ti_ReentSupport_getReent__F                                                                                                            
00014c31  ti_sysbios_rts_ti_ReentSupport_getTlsAddr__I                                                                                                          
00015571  ti_sysbios_rts_ti_ReentSupport_taskRegHook__I                                                                                                         
00018c58  ti_sysbios_utils_Load_LS_cpuLoad__C                                                                                                                   
2000b758  ti_sysbios_utils_Load_Module_State_0_runningTask__A                                                                                                   
2000b75c  ti_sysbios_utils_Load_Module_State_0_taskStartTime__A                                                                                                 
00018c5c  ti_sysbios_utils_Load_Module__diagsEnabled__C                                                                                                         
00018c60  ti_sysbios_utils_Load_Module__diagsIncluded__C                                                                                                        
00018c64  ti_sysbios_utils_Load_Module__diagsMask__C                                                                                                            
00018d56  ti_sysbios_utils_Load_Module__id__C                                                                                                                   
00018d58  ti_sysbios_utils_Load_Module__loggerDefined__C                                                                                                        
00018c68  ti_sysbios_utils_Load_Module__loggerFxn1__C                                                                                                           
00018c6c  ti_sysbios_utils_Load_Module__loggerObj__C                                                                                                            
2000afac  ti_sysbios_utils_Load_Module__state__V                                                                                                                
0000d639  ti_sysbios_utils_Load_idleFxn__E                                                                                                                      
000106e1  ti_sysbios_utils_Load_logCPULoad__I                                                                                                                   
00018c70  ti_sysbios_utils_Load_postUpdate__C                                                                                                                   
00013409  ti_sysbios_utils_Load_updateCurrentThreadTime__E                                                                                                      
00018d5a  ti_sysbios_utils_Load_updateInIdle__C                                                                                                                 
0000cf19  ti_sysbios_utils_Load_updateLoads__E                                                                                                                  
0000cf19  ti_sysbios_utils_Load_update__E                                                                                                                       
00018c74  ti_sysbios_utils_Load_windowInMs__C                                                                                                                   
00013b19  ti_uia_loggers_LoggerStopMode_Handle__label__S                                                                                                        
2000a780  ti_uia_loggers_LoggerStopMode_Instance_State_0_hdr__A                                                                                                 
2000a200  ti_uia_loggers_LoggerStopMode_Instance_State_0_packetArray__A                                                                                         
2000a800  ti_uia_loggers_LoggerStopMode_Instance_State_1_hdr__A                                                                                                 
20009600  ti_uia_loggers_LoggerStopMode_Instance_State_1_packetArray__A                                                                                         
2000a880  ti_uia_loggers_LoggerStopMode_Instance_State_2_hdr__A                                                                                                 
20008980  ti_uia_loggers_LoggerStopMode_Instance_State_2_packetArray__A                                                                                         
000148a5  ti_uia_loggers_LoggerStopMode_Instance_init__E                                                                                                        
00017e24  ti_uia_loggers_LoggerStopMode_Module__FXNS__C                                                                                                         
00018c78  ti_uia_loggers_LoggerStopMode_Module__diagsEnabled__C                                                                                                 
00018c7c  ti_uia_loggers_LoggerStopMode_Module__diagsIncluded__C                                                                                                
00018c80  ti_uia_loggers_LoggerStopMode_Module__diagsMask__C                                                                                                    
00018d5c  ti_uia_loggers_LoggerStopMode_Module__id__C                                                                                                           
2000b708  ti_uia_loggers_LoggerStopMode_Module__root__V                                                                                                         
00011a3d  ti_uia_loggers_LoggerStopMode_Module_startup__E                                                                                                       
00018490  ti_uia_loggers_LoggerStopMode_Object__DESC__C                                                                                                         
000181a0  ti_uia_loggers_LoggerStopMode_Object__PARAMS__C                                                                                                       
00018c84  ti_uia_loggers_LoggerStopMode_Object__count__C                                                                                                        
00013439  ti_uia_loggers_LoggerStopMode_Object__create__S                                                                                                       
00014589  ti_uia_loggers_LoggerStopMode_Object__delete__S                                                                                                       
00015249  ti_uia_loggers_LoggerStopMode_Object__get__S                                                                                                          
2000af10  ti_uia_loggers_LoggerStopMode_Object__table__V                                                                                                        
00014d81  ti_uia_loggers_LoggerStopMode_disable__E                                                                                                              
00014d97  ti_uia_loggers_LoggerStopMode_enable__E                                                                                                               
000104e1  ti_uia_loggers_LoggerStopMode_flush__E                                                                                                                
0000e96d  ti_uia_loggers_LoggerStopMode_getContents__E                                                                                                          
0000ea05  ti_uia_loggers_LoggerStopMode_getFilterLevel__E                                                                                                       
0000ef15  ti_uia_loggers_LoggerStopMode_getInstanceId__E                                                                                                        
0000efa5  ti_uia_loggers_LoggerStopMode_getMaxLength__E                                                                                                         
0000f145  ti_uia_loggers_LoggerStopMode_getPriority__E                                                                                                          
0000f575  ti_uia_loggers_LoggerStopMode_getTransferType__E                                                                                                      
000122d5  ti_uia_loggers_LoggerStopMode_initBuffer__I                                                                                                           
0000ec51  ti_uia_loggers_LoggerStopMode_initQueueDescriptor__E                                                                                                  
00015259  ti_uia_loggers_LoggerStopMode_isEmpty__E                                                                                                              
00018d5e  ti_uia_loggers_LoggerStopMode_isTimestampEnabled__C                                                                                                   
00012f69  ti_uia_loggers_LoggerStopMode_reset__E                                                                                                                
00008c3f  ti_uia_loggers_LoggerStopMode_setFilterLevel__E                                                                                                       
00009b9b  ti_uia_loggers_LoggerStopMode_setPriority__E                                                                                                          
0000c4d5  ti_uia_loggers_LoggerStopMode_write0__E                                                                                                               
0000c155  ti_uia_loggers_LoggerStopMode_write1__E                                                                                                               
0000bea5  ti_uia_loggers_LoggerStopMode_write2__E                                                                                                               
0000bcc1  ti_uia_loggers_LoggerStopMode_write4__E                                                                                                               
0000b5a9  ti_uia_loggers_LoggerStopMode_write8__E                                                                                                               
0000a0b9  ti_uia_loggers_LoggerStopMode_writeMemoryRange__E                                                                                                     
00018c88  ti_uia_runtime_ILoggerSnapshot_Interface__BASE__C                                                                                                     
00018c8c  ti_uia_runtime_IUIATransfer_Interface__BASE__C                                                                                                        
2000b67c  ti_uia_runtime_QueueDescriptor_Module__state__V                                                                                                       
0000fdad  ti_uia_runtime_QueueDescriptor_addToList__E                                                                                                           
2000b6c0  ti_uia_runtime_QueueDescriptor_gPtrToFirstDescriptor                                                                                                  
2000b6c4  ti_uia_runtime_QueueDescriptor_gUpdateCount                                                                                                           
2000b760  timer_ccrs_in_use                                                                                                                                     
00015269  tolower                                                                                                                                               
2000b694  toneTimerId                                                                                                                                           
00015279  toupper                                                                                                                                               
00017718  uartMSP432Baudrates                                                                                                                                   
00017c04  uartMSP432HWAttrs                                                                                                                                     
20009800  uartMSP432Objects                                                                                                                                     
2000a468  uartMSP432RingBuffer0                                                                                                                                 
20008180  uartMSP432RingBuffer1                                                                                                                                 
2000a4e8  uartMSP432RingBuffer2                                                                                                                                 
2000a568  uartMSP432RingBuffer3                                                                                                                                 
00008ba1  ultoa                                                                                                                                                 
2000b5ec  used_pwm_port_pins                                                                                                                                    
00008b8d  utoa                                                                                                                                                  
000189d4  watchdogMSP432HWAttrs                                                                                                                                 
2000a75c  watchdogMSP432Objects                                                                                                                                 
00015073  wcslen                                                                                                                                                
00000001  xdc_rov_runtime_Mon__checksum                                                                                                                         
00000001  xdc_rov_runtime_Mon__write                                                                                                                            
00018c90  xdc_runtime_Assert_E_assertFailed__C                                                                                                                  
000110b1  xdc_runtime_Assert_raise__I                                                                                                                           
00018c94  xdc_runtime_Core_A_initializedParams__C                                                                                                               
00018c98  xdc_runtime_Core_Module__diagsEnabled__C                                                                                                              
00018c9c  xdc_runtime_Core_Module__diagsIncluded__C                                                                                                             
00018ca0  xdc_runtime_Core_Module__diagsMask__C                                                                                                                 
00018d60  xdc_runtime_Core_Module__id__C                                                                                                                        
00011e39  xdc_runtime_Core_assignParams__I                                                                                                                      
0000b8c9  xdc_runtime_Core_constructObject__I                                                                                                                   
0000a6f1  xdc_runtime_Core_createObject__I                                                                                                                      
0000f979  xdc_runtime_Core_deleteObject__I                                                                                                                      
00018ca4  xdc_runtime_Error_E_memory__C                                                                                                                         
2000b598  xdc_runtime_Error_IgnoreBlock                                                                                                                         
00018d62  xdc_runtime_Error_Module__loggerDefined__C                                                                                                            
2000b76a  xdc_runtime_Error_Module__state__V                                                                                                                    
00014c49  xdc_runtime_Error_init__E                                                                                                                             
00018d64  xdc_runtime_Error_maxDepth__C                                                                                                                         
0000b499  xdc_runtime_Error_policyDefault__E                                                                                                                    
00018ca8  xdc_runtime_Error_policyFxn__C                                                                                                                        
00013469  xdc_runtime_Error_policyLog__I                                                                                                                        
00018d70  xdc_runtime_Error_policy__C                                                                                                                           
0000fb61  xdc_runtime_Error_print__E                                                                                                                            
00018cac  xdc_runtime_Error_raiseHook__C                                                                                                                        
000148c1  xdc_runtime_Error_raiseX__E                                                                                                                           
00010411  xdc_runtime_Error_setX__E                                                                                                                             
00015581  xdc_runtime_Gate_enterSystem__E                                                                                                                       
00015289  xdc_runtime_Gate_leaveSystem__E                                                                                                                       
00018cb0  xdc_runtime_IFilterLogger_Interface__BASE__C                                                                                                          
00018cb4  xdc_runtime_IGateProvider_Interface__BASE__C                                                                                                          
00018cb8  xdc_runtime_IHeap_Interface__BASE__C                                                                                                                  
00018cbc  xdc_runtime_ILogger_Interface__BASE__C                                                                                                                
00018cc0  xdc_runtime_IModule_Interface__BASE__C                                                                                                                
0001398d  xdc_runtime_Main_Module_GateProxy_Handle__label__S                                                                                                    
000156a1  xdc_runtime_Main_Module_GateProxy_query__E                                                                                                            
00013a3d  xdc_runtime_Memory_HeapProxy_Handle__label__S                                                                                                         
00015601  xdc_runtime_Memory_HeapProxy_alloc__E                                                                                                                 
0001560b  xdc_runtime_Memory_HeapProxy_free__E                                                                                                                  
00015615  xdc_runtime_Memory_HeapProxy_getStats__E                                                                                                              
00018d66  xdc_runtime_Memory_Module__id__C                                                                                                                      
2000b764  xdc_runtime_Memory_Module__state__V                                                                                                                   
0000f579  xdc_runtime_Memory_alloc__E                                                                                                                           
00018cc4  xdc_runtime_Memory_defaultHeapInstance__C                                                                                                             
00015299  xdc_runtime_Memory_free__E                                                                                                                            
2000b710  xdc_runtime_Registry_Module__state__V                                                                                                                 
2000b718  xdc_runtime_Startup_Module__state__V                                                                                                                  
00000001  xdc_runtime_Startup__EXECFXN__C                                                                                                                       
00000001  xdc_runtime_Startup__RESETFXN__C                                                                                                                      
00018cc8  xdc_runtime_Startup_execImpl__C                                                                                                                       
00010bd1  xdc_runtime_Startup_exec__E                                                                                                                           
00015085  xdc_runtime_Startup_exec__I                                                                                                                           
00018844  xdc_runtime_Startup_firstFxns__A                                                                                                                      
000189dc  xdc_runtime_Startup_firstFxns__C                                                                                                                      
000189e4  xdc_runtime_Startup_lastFxns__C                                                                                                                       
00018ccc  xdc_runtime_Startup_maxPasses__C                                                                                                                      
000149ed  xdc_runtime_Startup_reset__I                                                                                                                          
00015591  xdc_runtime_Startup_rtsDone__E                                                                                                                        
0001855c  xdc_runtime_Startup_sfxnRts__A                                                                                                                        
00018cd0  xdc_runtime_Startup_sfxnRts__C                                                                                                                        
00018060  xdc_runtime_Startup_sfxnTab__A                                                                                                                        
00018cd4  xdc_runtime_Startup_sfxnTab__C                                                                                                                        
0000ace1  xdc_runtime_Startup_startMods__I                                                                                                                      
20008d80  xdc_runtime_SysMin_Module_State_0_outbuf__A                                                                                                           
2000b688  xdc_runtime_SysMin_Module__state__V                                                                                                                   
000145a9  xdc_runtime_SysMin_Module_startup__E                                                                                                                  
00012b09  xdc_runtime_SysMin_abort__E                                                                                                                           
00018cd8  xdc_runtime_SysMin_bufSize__C                                                                                                                         
000148e1  xdc_runtime_SysMin_exit__E                                                                                                                            
00018d68  xdc_runtime_SysMin_flushAtExit__C                                                                                                                     
000116e1  xdc_runtime_SysMin_flush__E                                                                                                                           
00018cdc  xdc_runtime_SysMin_outputFunc__C                                                                                                                      
00014307  xdc_runtime_SysMin_output__I                                                                                                                          
00012319  xdc_runtime_SysMin_putch__E                                                                                                                           
000152a9  xdc_runtime_SysMin_ready__E                                                                                                                           
0001398d  xdc_runtime_System_Module_GateProxy_Handle__label__S                                                                                                  
0000f6fd  xdc_runtime_System_Module_GateProxy_enter__E                                                                                                          
000100b5  xdc_runtime_System_Module_GateProxy_leave__E                                                                                                          
000156a1  xdc_runtime_System_Module_GateProxy_query__E                                                                                                          
2000b720  xdc_runtime_System_Module_State_0_atexitHandlers__A                                                                                                   
00018ce0  xdc_runtime_System_Module__gateObj__C                                                                                                                 
2000b728  xdc_runtime_System_Module__state__V                                                                                                                   
00015691  xdc_runtime_System_Module_startup__E                                                                                                                  
00012b09  xdc_runtime_System_SupportProxy_abort__E                                                                                                              
000148e1  xdc_runtime_System_SupportProxy_exit__E                                                                                                               
000116e1  xdc_runtime_System_SupportProxy_flush__E                                                                                                              
00012319  xdc_runtime_System_SupportProxy_putch__E                                                                                                              
000152a9  xdc_runtime_System_SupportProxy_ready__E                                                                                                              
00018ce4  xdc_runtime_System_abortFxn__C                                                                                                                        
0000b155  xdc_runtime_System_abortStd__E                                                                                                                        
0001499b  xdc_runtime_System_aprintf__E                                                                                                                         
00013e49  xdc_runtime_System_aprintf_va__F                                                                                                                      
00012361  xdc_runtime_System_atexit__E                                                                                                                          
00003821  xdc_runtime_System_doPrint__I                                                                                                                         
00018ce8  xdc_runtime_System_exitFxn__C                                                                                                                         
00011c89  xdc_runtime_System_exitStd__E                                                                                                                         
00014c61  xdc_runtime_System_exit__E                                                                                                                            
00018cec  xdc_runtime_System_extendFxn__C                                                                                                                       
000116e1  xdc_runtime_System_flush__E                                                                                                                           
0000fbd9  xdc_runtime_System_formatNum__I                                                                                                                       
00018cf0  xdc_runtime_System_maxAtexitHandlers__C                                                                                                               
00007dd9  xdc_runtime_System_printfExtend__I                                                                                                                    
000149b5  xdc_runtime_System_printf__E                                                                                                                          
00013f81  xdc_runtime_System_printf_va__F                                                                                                                       
00012899  xdc_runtime_System_processAtExit__E                                                                                                                   
000156d8  xdc_runtime_Text_charTab__A                                                                                                                           
00018cf4  xdc_runtime_Text_charTab__C                                                                                                                           
00018d6a  xdc_runtime_Text_isLoaded__C                                                                                                                          
000179e8  xdc_runtime_Text_nodeTab__A                                                                                                                           
00018cf8  xdc_runtime_Text_nodeTab__C                                                                                                                           
00013499  xdc_runtime_Text_printVisFxn__I                                                                                                                       
00010a51  xdc_runtime_Text_putLab__E                                                                                                                            
0000efa9  xdc_runtime_Text_putMod__E                                                                                                                            
0000e189  xdc_runtime_Text_putSite__E                                                                                                                           
00018d6c  xdc_runtime_Text_registryModsLastId__C                                                                                                                
00018d6e  xdc_runtime_Text_unnamedModsLastId__C                                                                                                                 
00010479  xdc_runtime_Text_visitRope2__I                                                                                                                        
00018cfc  xdc_runtime_Text_visitRopeFxn__C                                                                                                                      
000152b9  xdc_runtime_Text_visitRope__I                                                                                                                         
00011a89  xdc_runtime_Text_xprintf__I                                                                                                                           
000109f1  xdc_runtime_Timestamp_SupportProxy_get32__E                                                                                                           
0000f701  xdc_runtime_Timestamp_SupportProxy_get64__E                                                                                                           
00015189  xdc_runtime_Timestamp_SupportProxy_getFreq__E                                                                                                         
000109f1  xdc_runtime_Timestamp_get32__E                                                                                                                        
0000f701  xdc_runtime_Timestamp_get64__E                                                                                                                        
00015189  xdc_runtime_Timestamp_getFreq__E                                                                                                                      


GLOBAL SYMBOLS: SORTED BY Symbol Address 

address   name                                                                                                                                                  
-------   ----                                                                                                                                                  
00000000  __ASM__                                                                                                                                               
00000000  ti_sysbios_family_arm_m3_Hwi_resetVectors                                                                                                             
00000001  xdc_rov_runtime_Mon__checksum                                                                                                                         
00000001  xdc_rov_runtime_Mon__write                                                                                                                            
00000001  xdc_runtime_Startup__EXECFXN__C                                                                                                                       
00000001  xdc_runtime_Startup__RESETFXN__C                                                                                                                      
00000041  _ZplRK15StringSumHelperRK6String                                                                                                                      
00000065  _ZplRK15StringSumHelperPKc                                                                                                                            
00000083  __ISA__                                                                                                                                               
0000008f  _ZplRK15StringSumHelperc                                                                                                                              
00000096  __PLAT__                                                                                                                                              
000000b1  _ZplRK15StringSumHelperh                                                                                                                              
000000b9  __TARG__                                                                                                                                              
000000d3  _ZplRK15StringSumHelperi                                                                                                                              
000000df  __TRDR__                                                                                                                                              
000000f1  _ZplRK15StringSumHelperj                                                                                                                              
0000010f  _ZplRK15StringSumHelperl                                                                                                                              
0000012d  _ZplRK15StringSumHelperm                                                                                                                              
0000014b  _ZplRK15StringSumHelperPK19__FlashStringHelper                                                                                                        
00000169  _ZN6StringC1EPKc                                                                                                                                      
00000169  _ZN6StringC2EPKc                                                                                                                                      
0000018d  _ZN6StringC1ERKS_                                                                                                                                     
0000018d  _ZN6StringC2ERKS_                                                                                                                                     
000001a5  _ZN6StringC1EPK19__FlashStringHelper                                                                                                                  
000001a5  _ZN6StringC2EPK19__FlashStringHelper                                                                                                                  
000001bd  _ZN6StringC1Ec                                                                                                                                        
000001bd  _ZN6StringC2Ec                                                                                                                                        
000001e5  _ZN6StringC1Ehh                                                                                                                                       
000001e5  _ZN6StringC2Ehh                                                                                                                                       
00000217  _ZN6StringC1Eih                                                                                                                                       
00000217  _ZN6StringC2Eih                                                                                                                                       
00000245  _ZN6StringC1Ejh                                                                                                                                       
00000245  _ZN6StringC2Ejh                                                                                                                                       
00000273  _ZN6StringC1Elh                                                                                                                                       
00000273  _ZN6StringC2Elh                                                                                                                                       
000002a1  _ZN6StringC1Emh                                                                                                                                       
000002a1  _ZN6StringC2Emh                                                                                                                                       
000002cf  _ZN6StringD1Ev                                                                                                                                        
000002cf  _ZN6StringD2Ev                                                                                                                                        
000002df  _ZN6String7reserveEj                                                                                                                                  
00000319  _ZN6StringaSERKS_                                                                                                                                     
0000034b  _ZN6StringaSEPKc                                                                                                                                      
00000371  _ZN6StringaSEPK19__FlashStringHelper                                                                                                                  
00000397  _ZN6String6concatERKS_                                                                                                                                
000003ad  _ZN6String6concatEPKc                                                                                                                                 
000003cd  _ZN6String6concatEc                                                                                                                                   
000003ef  _ZN6String6concatEh                                                                                                                                   
00000400  __STACK_SIZE                                                                                                                                          
00000415  _ZN6String6concatEi                                                                                                                                   
0000043d  _ZN6String6concatEj                                                                                                                                   
00000465  _ZN6String6concatEl                                                                                                                                   
0000048d  _ZN6String6concatEm                                                                                                                                   
000004b5  _ZN6String6concatEPK19__FlashStringHelper                                                                                                             
0000050b  _ZNK6String9compareToERKS_                                                                                                                            
00000559  _ZNK6String6equalsERKS_                                                                                                                               
0000057d  _ZNK6String6equalsEPKc                                                                                                                                
000005bf  _ZNK6StringltERKS_                                                                                                                                    
000005d9  _ZNK6StringgtERKS_                                                                                                                                    
000005f3  _ZNK6StringleERKS_                                                                                                                                    
0000060d  _ZNK6StringgeERKS_                                                                                                                                    
00000627  _ZNK6String16equalsIgnoreCaseERKS_                                                                                                                    
00000691  _ZNK6String10startsWithERKS_                                                                                                                          
000006b3  _ZNK6String10startsWithERKS_j                                                                                                                         
000006f9  _ZNK6String8endsWithERKS_                                                                                                                             
0000073d  _ZNK6String6charAtEj                                                                                                                                  
0000074d  _ZN6String9setCharAtEjc                                                                                                                               
00000773  _ZNK6StringixEj                                                                                                                                       
0000079b  _ZN6StringixEj                                                                                                                                        
000007c9  _ZNK6String8getBytesEPhjj                                                                                                                             
0000082d  _ZNK6String7indexOfEc                                                                                                                                 
00000843  _ZNK6String7indexOfEcj                                                                                                                                
00000889  _ZNK6String7indexOfERKS_                                                                                                                              
0000089b  _ZNK6String7indexOfERKS_j                                                                                                                             
000008df  _ZNK6String11lastIndexOfEc                                                                                                                            
000008f9  _ZNK6String11lastIndexOfEcj                                                                                                                           
00000963  _ZNK6String11lastIndexOfERKS_                                                                                                                         
0000097d  _ZNK6String11lastIndexOfERKS_j                                                                                                                        
00000a0d  _ZNK6String9substringEjj                                                                                                                              
00000aa3  _ZN6String7replaceEcc                                                                                                                                 
00000ae5  _ZN6String7replaceERKS_S1_                                                                                                                            
00000c7d  _ZN6String6removeEj                                                                                                                                   
00000c93  _ZN6String6removeEjj                                                                                                                                  
00000d03  _ZN6String11toLowerCaseEv                                                                                                                             
00000d31  _ZN6String11toUpperCaseEv                                                                                                                             
00000d5f  _ZN6String4trimEv                                                                                                                                     
00000de7  _ZNK6String5toIntEv                                                                                                                                   
00000dff  _ZN6String10invalidateEv                                                                                                                              
00000e23  _ZN6String12changeBufferEj                                                                                                                            
00000e4f  _ZN6String6concatEPKcj                                                                                                                                
00000e9f  _ZN6String4copyEPKcj                                                                                                                                  
00000ecf  _ZN6String4copyEPK19__FlashStringHelperj                                                                                                              
00000eff  PWMTimerMSP432_init                                                                                                                                   
00000f01  __TI_printfi                                                                                                                                          
0000194f  PowerMSP432_initPolicy                                                                                                                                
00001951  pow                                                                                                                                                   
00001951  powl                                                                                                                                                  
0000231d  _Z11serialEventv                                                                                                                                      
0000231f  _Z12serialEvent1v                                                                                                                                     
00002321  _Z12serialEvent2v                                                                                                                                     
00002323  _Z12serialEvent3v                                                                                                                                     
00002325  _Z14serialEventRunv                                                                                                                                   
00002335  _Z15serialEventRun1v                                                                                                                                  
00002345  _Z15serialEventRun2v                                                                                                                                  
00002355  _Z15serialEventRun3v                                                                                                                                  
00002365  _ZN14HardwareSerial4initEmPFYvP12UART_Config_PvjES4_                                                                                                  
000023a1  _ZN14HardwareSerial8flushAllEv                                                                                                                        
000023ab  _ZN14HardwareSerial7primeTxEv                                                                                                                         
0000241d  _ZN14HardwareSerialcvbEv                                                                                                                              
00002429  _ZN14HardwareSerialC1Ev                                                                                                                               
00002429  _ZN14HardwareSerialC2Ev                                                                                                                               
00002449  _ZN14HardwareSerialC1Em                                                                                                                               
00002449  _ZN14HardwareSerialC2Em                                                                                                                               
0000246b  _ZN14HardwareSerialC1EmPFYvP12UART_Config_PvjES4_                                                                                                     
0000246b  _ZN14HardwareSerialC2EmPFYvP12UART_Config_PvjES4_                                                                                                     
00002497  _ZN14HardwareSerialC1EmPFYvP12UART_Config_PvjES4_b                                                                                                    
00002497  _ZN14HardwareSerialC2EmPFYvP12UART_Config_PvjES4_b                                                                                                    
000024c7  _ZN14HardwareSerial5beginEm                                                                                                                           
000025bf  _ZN14HardwareSerial5beginEmb                                                                                                                          
000025e1  _ZN14HardwareSerial9setModuleEm                                                                                                                       
000025f1  _ZN14HardwareSerial7setPinsEm                                                                                                                         
00002601  _ZN14HardwareSerial7acquireEv                                                                                                                         
00002619  _ZN14HardwareSerial7releaseEv                                                                                                                         
0000262f  _ZN14HardwareSerial3endEv                                                                                                                             
0000264d  _ZN14HardwareSerial9availableEv                                                                                                                       
000026c5  _ZN14HardwareSerial4peekEv                                                                                                                            
0000271d  _ZN14HardwareSerial4readEv                                                                                                                            
00002799  _ZN14HardwareSerial5flushEv                                                                                                                           
000027b3  _ZN14HardwareSerial12readCallbackEP12UART_Config_Pvj                                                                                                  
00002827  _ZN14HardwareSerial13writeCallbackEP12UART_Config_Pvj                                                                                                 
000028bb  _ZN14HardwareSerial5writeEh                                                                                                                           
000028d5  _ZN14HardwareSerial5writeEPKhj                                                                                                                        
000029b9  _ZN5Print11printNumberEmh                                                                                                                             
00002a2f  _ZN5Print10printFloatEfh                                                                                                                              
00002b51  _ZN5Print5writeEPKhj                                                                                                                                  
00002b95  _ZN5Print5printERK6String                                                                                                                             
00002bbb  _ZN5Print5printEPKc                                                                                                                                   
00002bcb  _ZN5Print5printEc                                                                                                                                     
00002be5  _ZN5Print5printEhi                                                                                                                                    
00002bfd  _ZN5Print5printEii                                                                                                                                    
00002c11  _ZN5Print5printEji                                                                                                                                    
00002c25  _ZN5Print5printEli                                                                                                                                    
00002c91  _ZN5Print5printEmi                                                                                                                                    
00002cbd  _ZN5Print5printEfi                                                                                                                                    
00002cd7  _ZN5Print5printERK9Printable                                                                                                                          
00002ced  _ZN5Print7printlnERK6String                                                                                                                           
00002d0d  _ZN5Print7printlnEPKc                                                                                                                                 
00002d2d  _ZN5Print7printlnEc                                                                                                                                   
00002d51  _ZN5Print7printlnEhi                                                                                                                                  
00002d83  _ZN5Print7printlnEii                                                                                                                                  
00002dad  _ZN5Print7printlnEji                                                                                                                                  
00002dd7  _ZN5Print7printlnEli                                                                                                                                  
00002e01  _ZN5Print7printlnEmi                                                                                                                                  
00002e2b  _ZN5Print7printlnEfi                                                                                                                                  
00002e59  _ZN5Print7printlnERK9Printable                                                                                                                        
00002e79  _ZN5Print7printlnEv                                                                                                                                   
00002e91  _ZN6Stream9timedReadEv                                                                                                                                
00002ecd  _ZN6Stream9timedPeekEv                                                                                                                                
00002f09  _ZN6Stream13peekNextDigitEv                                                                                                                           
00002f49  _ZN6Stream10setTimeoutEm                                                                                                                              
00002f5b  _ZN6Stream4findEPc                                                                                                                                    
00002f6d  _ZN6Stream4findEPcj                                                                                                                                   
00002f8d  _ZN6Stream9findUntilEPcS0_                                                                                                                            
00002fb5  _ZN6Stream9findUntilEPcjS0_j                                                                                                                          
00003039  _ZN6Stream8parseIntEv                                                                                                                                 
00003047  _ZN6Stream10parseFloatEv                                                                                                                              
00003055  _ZN6Stream9readBytesEPcj                                                                                                                              
0000309b  _ZN6Stream14readBytesUntilEcPcj                                                                                                                       
000030f9  _ZN6Stream10readStringEv                                                                                                                              
00003143  _ZN6Stream15readStringUntilEc                                                                                                                         
00003197  _ZN6Stream8parseIntEc                                                                                                                                 
0000322f  _ZN6Stream10parseFloatEc                                                                                                                              
00003359  _ZN11ConnService16msrDataSerializeEP14ProtoMsrData_tPhjbb                                                                                             
00003821  xdc_runtime_System_doPrint__I                                                                                                                         
00003ce7  UARTMSP432_init                                                                                                                                       
00003ce9  stopDigitalRead                                                                                                                                       
00003cf5  stopDigitalWrite                                                                                                                                      
00003d01  analogWrite                                                                                                                                           
00003f55  stopAnalogWrite                                                                                                                                       
00004071  analogReference                                                                                                                                       
000040f1  stopAnalogRead                                                                                                                                        
00004121  analogReadResolution                                                                                                                                  
00004165  CPU_wfi                                                                                                                                               
00004169  ti_sysbios_family_arm_m3_Hwi_excDumpRegs__I                                                                                                           
00004599  _ZN11TinyGPSPlus16endOfTermHandlerEv                                                                                                                  
0000493b  _ZNSt9type_infoD1Ev                                                                                                                                   
0000493b  _ZNSt9type_infoD2Ev                                                                                                                                   
0000493d  _ZN13TinyGsmSim80012waitResponseEjR6StringPKcS3_S3_S3_S3_                                                                                             
00004cc1  Power_sleep                                                                                                                                           
00004fb9  ti_sysbios_knl_Semaphore_pend__E                                                                                                                      
000052a5  _ZN13TinyGsmSim80011gprsConnectEPKcS1_S1_                                                                                                             
00005581  UARTMSP432_open                                                                                                                                       
00005851  _ZN9MainBoard4initEv                                                                                                                                  
00005b07  _nop                                                                                                                                                  
00005b09  _Z4loopv                                                                                                                                              
00005db1  __mktime32                                                                                                                                            
00005db1  mktime                                                                                                                                                
00006051  ti_sysbios_knl_Task_Instance_finalize__E                                                                                                              
00006573  __aeabi_idiv0                                                                                                                                         
00006573  __aeabi_ldiv0                                                                                                                                         
00006a6d  ClockP_setTimeout                                                                                                                                     
00006a71  ti_sysbios_heaps_HeapMem_freeUnprotected__E                                                                                                           
00006cb9  micros                                                                                                                                                
00006cf5  millis                                                                                                                                                
00006cfd  delayMicroseconds                                                                                                                                     
00006e0f  delay                                                                                                                                                 
00006e7d  setDelayResolution                                                                                                                                    
00006eb5  getSpiInfo                                                                                                                                            
00006ef9  _ZN14SerialTransfer9availableEv                                                                                                                       
00007139  _ZN11ConnService14httpPostBinaryEPKcPhjR6String                                                                                                       
00007369  _ZN11ConnService5beginEv                                                                                                                              
00007599  _ZN11ConnService7httpGetEPKcRiR6StringRj                                                                                                              
000077b9  ti_sysbios_knl_Task_sleep__E                                                                                                                          
000079cd  PWMTimerMSP432_open                                                                                                                                   
00007bd5  ClockP_start                                                                                                                                          
00007bd9  ti_sysbios_heaps_HeapMem_allocUnprotected__E                                                                                                          
00007dd9  xdc_runtime_System_printfExtend__I                                                                                                                    
00007fd1  ti_sysbios_family_arm_m3_Hwi_excHandlerMax__I                                                                                                         
00008000  HEAPSIZE                                                                                                                                              
000081c5  ClockP_stop                                                                                                                                           
000081c9  ti_sysbios_knl_Task_Instance_init__E                                                                                                                  
00008585  _ZN10HttpClient12startRequestEPKcS1_S1_iPKh                                                                                                           
00008755  __aeabi_dsub                                                                                                                                          
0000875f  __aeabi_dadd                                                                                                                                          
0000890b  ti_sysbios_BIOS_nullFunc__I                                                                                                                           
00008925  Board_initGeneral                                                                                                                                     
0000892d  Board_initGPIO                                                                                                                                        
00008a17  Board_initPower                                                                                                                                       
00008a1f  Board_initPWM                                                                                                                                         
00008a27  Board_initWatchdog                                                                                                                                    
00008a2f  Board_init                                                                                                                                            
00008aad  itoa                                                                                                                                                  
00008ac1  _ltoa                                                                                                                                                 
00008b8d  utoa                                                                                                                                                  
00008ba1  ultoa                                                                                                                                                 
00008c3f  ti_uia_loggers_LoggerStopMode_setFilterLevel__E                                                                                                       
00008c41  ti_sysbios_family_arm_m3_Hwi_excBusFault__I                                                                                                           
00008dc1  ti_sysbios_family_arm_m3_Hwi_excUsageFault__I                                                                                                         
00008f39  GPIO_setConfig                                                                                                                                        
000090a9  _ZN9IPAddressC1Ev                                                                                                                                     
000090a9  _ZN9IPAddressC2Ev                                                                                                                                     
000090c9  _ZN9IPAddressC1Ehhhh                                                                                                                                  
000090c9  _ZN9IPAddressC2Ehhhh                                                                                                                                  
00009109  _ZN9IPAddressC1Ej                                                                                                                                     
00009109  _ZN9IPAddressC2Ej                                                                                                                                     
00009129  _ZN9IPAddressC1EPKh                                                                                                                                   
00009129  _ZN9IPAddressC2EPKh                                                                                                                                   
00009149  _ZN9IPAddresseqEPKh                                                                                                                                   
00009165  _ZN9IPAddressaSEPKh                                                                                                                                   
0000917d  _ZN9IPAddressaSEj                                                                                                                                     
00009195  _ZNK9IPAddress7printToER5Print                                                                                                                        
000091f5  __sti___13_IPAddress_cpp_01cfe82d                                                                                                                     
00009211  _ZN10HttpClient10readHeaderEv                                                                                                                         
000094d1  ti_sysbios_heaps_HeapTrack_free__E                                                                                                                    
0000978d  HwiP_disable                                                                                                                                          
00009791  ti_sysbios_family_arm_m3_Hwi_excMemFault__I                                                                                                           
000098ed  sqrt                                                                                                                                                  
000098ed  sqrtl                                                                                                                                                 
00009a45  _ZN10HttpClient18responseStatusCodeEv                                                                                                                 
00009b9b  ti_uia_loggers_LoggerStopMode_setPriority__E                                                                                                          
00009b9d  _ZN13TinyGsmSim8009modemReadEjh                                                                                                                       
00009ce5  SemaphoreP_post                                                                                                                                       
00009ce9  ti_sysbios_family_arm_msp432_Seconds_set__E                                                                                                           
00009ce9  ti_sysbios_hal_Seconds_SecondsProxy_set__E                                                                                                            
00009ce9  ti_sysbios_hal_Seconds_set__E                                                                                                                         
00009e31  ti_sysbios_knl_Clock_workFunc__E                                                                                                                      
00009f75  WatchdogMSP432_convertMsToTicks                                                                                                                       
00009f79  ti_sysbios_family_arm_m3_Hwi_dispatchC__I                                                                                                             
0000a0b9  ti_uia_loggers_LoggerStopMode_writeMemoryRange__E                                                                                                     
0000a1f9  mode2gpioConfig                                                                                                                                       
0000a26d  pinMode                                                                                                                                               
0000a2bf  digitalRead                                                                                                                                           
0000a2ed  digitalWrite                                                                                                                                          
0000a323  getCpuFrequency                                                                                                                                       
0000a471  ti_sysbios_heaps_HeapMem_Instance_init__E                                                                                                             
0000a5ad  _ZN10__cxxabiv117__class_type_infoD1Ev                                                                                                                
0000a5ad  _ZN10__cxxabiv117__class_type_infoD2Ev                                                                                                                
0000a5b1  ti_sysbios_knl_Semaphore_post__E                                                                                                                      
0000a6ed  _ZN10__cxxabiv120__si_class_type_infoD1Ev                                                                                                             
0000a6ed  _ZN10__cxxabiv120__si_class_type_infoD2Ev                                                                                                             
0000a6f1  xdc_runtime_Core_createObject__I                                                                                                                      
0000a82d  __aeabi_ddiv                                                                                                                                          
0000a965  strtol                                                                                                                                                
0000abb9  ti_sysbios_knl_Swi_run__I                                                                                                                             
0000acdd  _ZdlPvj                                                                                                                                               
0000ace1  xdc_runtime_Startup_startMods__I                                                                                                                      
0000ae01  UART_initModule                                                                                                                                       
0000af1d  _ZN10HttpClient18sendInitialHeadersEPKcS1_                                                                                                            
0000b039  ti_sysbios_knl_Clock_Instance_init__E                                                                                                                 
0000b155  C$$EXIT                                                                                                                                               
0000b155  _ZSt17__throw_bad_allocv                                                                                                                              
0000b155  abort                                                                                                                                                 
0000b155  xdc_runtime_System_abortStd__E                                                                                                                        
0000b159  ti_sysbios_knl_Task_postInit__I                                                                                                                       
0000b271  _Z16uartReadCallbackP12UART_Config_Pvj                                                                                                                
0000b287  _Z17uartReadCallback1P12UART_Config_Pvj                                                                                                               
0000b29d  _Z17uartReadCallback2P12UART_Config_Pvj                                                                                                               
0000b2b3  _Z17uartReadCallback3P12UART_Config_Pvj                                                                                                               
0000b2c9  _Z17uartWriteCallbackP12UART_Config_Pvj                                                                                                               
0000b2df  _Z18uartWriteCallback1P12UART_Config_Pvj                                                                                                              
0000b2f5  _Z18uartWriteCallback2P12UART_Config_Pvj                                                                                                              
0000b30b  _Z18uartWriteCallback3P12UART_Config_Pvj                                                                                                              
0000b321  __sti___17_SerialObjects_cpp_fff8a874                                                                                                                 
0000b385  ldexp                                                                                                                                                 
0000b385  ldexpl                                                                                                                                                
0000b385  scalbn                                                                                                                                                
0000b385  scalbnl                                                                                                                                               
0000b495  ti_sysbios_BIOS_RtsGateProxy_enter__E                                                                                                                 
0000b499  xdc_runtime_Error_policyDefault__E                                                                                                                    
0000b5a9  ti_uia_loggers_LoggerStopMode_write8__E                                                                                                               
0000b6b5  _ZN11TinyGPSPlus6encodeEc                                                                                                                             
0000b8c5  ti_sysbios_BIOS_RtsGateProxy_leave__E                                                                                                                 
0000b8c9  xdc_runtime_Core_constructObject__I                                                                                                                   
0000b9cd  ADCMSP432_convert                                                                                                                                     
0000bac9  __aeabi_dmul                                                                                                                                          
0000bbc5  ti_sysbios_family_arm_m3_Hwi_delete                                                                                                                   
0000bbc9  ti_sysbios_family_arm_msp432_init_Boot_configureClocksHigh                                                                                            
0000bcc1  ti_uia_loggers_LoggerStopMode_write4__E                                                                                                               
0000bdb5  ti_sysbios_family_arm_m3_Hwi_dispatch__I                                                                                                              
0000be89  ti_sysbios_family_arm_m3_Hwi_interruptsAreDisabledButShouldNotBe                                                                                      
0000bea5  ti_uia_loggers_LoggerStopMode_write2__E                                                                                                               
0000bf8d  CS_startHFXTWithTimeout                                                                                                                               
0000c071  _ZN10HttpClient9availableEv                                                                                                                           
0000c155  ti_uia_loggers_LoggerStopMode_write1__E                                                                                                               
0000c239  CS_startLFXTWithTimeout                                                                                                                               
0000c319  _ZN11ConnService15sendMsrDataSendEP14ProtoMsrData_tb                                                                                                  
0000c4d5  ti_uia_loggers_LoggerStopMode_write0__E                                                                                                               
0000c5ad  _ZN13TinyGsmSim80012getModemInfoEv                                                                                                                    
0000c681  _ZN13TinyGsmSim8009GsmClient4readEPhj                                                                                                                 
0000c751  ti_sysbios_family_arm_m3_Hwi_excDebugMon__I                                                                                                           
0000c821  ti_sysbios_family_arm_m3_Hwi_excHardFault__I                                                                                                          
0000c8f1  ti_sysbios_knl_Task_schedule__I                                                                                                                       
0000c9c1  UARTMSP432_hwiIntFxn                                                                                                                                  
0000ca8d  _ZN13TinyGsmSim80012modemConnectEPKcthbi                                                                                                              
0000cb55  ti_sysbios_family_arm_m3_TaskSupport_Module__startupDone__S                                                                                           
0000cb55  ti_sysbios_knl_Task_SupportProxy_Module__startupDone__S                                                                                               
0000cb59  ti_sysbios_knl_Task_exit__E                                                                                                                           
0000cc21  _ZN13TinyGsmSim8009modemSendEPKvjh                                                                                                                    
0000cce1  _ZN13TinyGsmSim80012getSimStatusEm                                                                                                                    
0000cd9d  _ZN9MainBoard8gsmPowerEb                                                                                                                              
0000ce59  ti_sysbios_knl_Task_startCore__E                                                                                                                      
0000cf15  ti_sysbios_heaps_HeapMem_Module_GateProxy_enter__E                                                                                                    
0000cf19  ti_sysbios_utils_Load_updateLoads__E                                                                                                                  
0000cf19  ti_sysbios_utils_Load_update__E                                                                                                                       
0000d145  ADC14_configureConversionMemory                                                                                                                       
0000d1f9  UARTMSP432_control                                                                                                                                    
0000d2ad  ti_sysbios_heaps_HeapMem_Module_GateProxy_leave__E                                                                                                    
0000d2b1  ti_sysbios_gates_GateMutex_enter__E                                                                                                                   
0000d365  ti_sysbios_knl_Clock_TimerProxy_getMaxTicks__E                                                                                                        
0000d369  ti_sysbios_knl_Task_checkStacks__E                                                                                                                    
0000d41d  WatchdogMSP432_open                                                                                                                                   
0000d583  WatchdogMSP432_control                                                                                                                                
0000d589  ti_sysbios_knl_Task_yield__E                                                                                                                          
0000d639  ti_sysbios_utils_Load_idleFxn__E                                                                                                                      
0000d6e9  _ZN11TinyGPSPlusC1Ev                                                                                                                                  
0000d6e9  _ZN11TinyGPSPlusC2Ev                                                                                                                                  
0000d799  _ZN11ConnService17getServerDateTimeERjb                                                                                                               
0000d849  GPIO_init                                                                                                                                             
0000d8f5  _ZN13TinyGsmSim80017modemGetAvailableEh                                                                                                               
0000d9a1  ti_sysbios_family_arm_m3_Hwi_Instance_init__E                                                                                                         
0000da4d  ti_sysbios_knl_Clock_TimerProxy_start__E                                                                                                              
0000da51  ti_sysbios_knl_Swi_post__E                                                                                                                            
0000dafd  UARTMSP432_write                                                                                                                                      
0000dba5  _ZN13TinyGsmSim8009GsmClient7connectE9IPAddressti                                                                                                     
0000dcf5  ti_sysbios_knl_Clock_TimerProxy_stop__E                                                                                                               
0000dcf9  ti_sysbios_family_arm_msp432_Timer_periodicStub__E                                                                                                    
0000dda1  ti_sysbios_knl_Task_blockI__E                                                                                                                         
0000de49  _ZN10HttpClient12responseBodyEv                                                                                                                       
0000def1  PWMTimerMSP432_stop                                                                                                                                   
0000df95  _ZN11TinyGPSPlus12parseDegreesEPKcR10RawDegrees                                                                                                       
0000e039  ti_sysbios_knl_Clock_Instance_finalize__E                                                                                                             
0000e0dd  ti_sysbios_knl_Clock_delete                                                                                                                           
0000e0e1  ti_sysbios_rts_ti_ReentSupport_getReent__E                                                                                                            
0000e0e1  ti_sysbios_rts_ti_ReentSupport_getReent__F                                                                                                            
0000e185  ti_sysbios_knl_Semaphore_delete                                                                                                                       
0000e189  xdc_runtime_Text_putSite__E                                                                                                                           
0000e22d  _ZN13TinyGsmSim8009GsmClient4stopEv                                                                                                                   
0000e2cd  __TI_auto_init                                                                                                                                        
0000e40d  Power_init                                                                                                                                            
0000e4a9  _Z5setupv                                                                                                                                             
0000e545  __aeabi_memcpy                                                                                                                                        
0000e545  __aeabi_memcpy4                                                                                                                                       
0000e545  __aeabi_memcpy8                                                                                                                                       
0000e545  memcpy                                                                                                                                                
0000e5e1  ti_sysbios_knl_Semaphore_Instance_init__E                                                                                                             
0000e67d  _ZN11TinyGsmFifoIhLj64EE3getEPhib                                                                                                                     
0000e715  __aeabi_uldivmod                                                                                                                                      
0000e7ad  PWMTimerMSP432_setDuty                                                                                                                                
0000e841  main                                                                                                                                                  
0000e8d5  ti_sysbios_knl_Task_delete                                                                                                                            
0000e8d9  ti_sysbios_family_arm_m3_Hwi_initNVIC__E                                                                                                              
0000e96d  ti_uia_loggers_LoggerStopMode_getContents__E                                                                                                          
0000e971  ti_sysbios_heaps_HeapTrack_alloc__E                                                                                                                   
0000ea05  ti_uia_loggers_LoggerStopMode_getFilterLevel__E                                                                                                       
0000ea09  ti_sysbios_knl_Task_unblockI__E                                                                                                                       
0000ea9d  UARTMSP432_close                                                                                                                                      
0000ebc1  ti_sysbios_knl_Task_Module_startup__E                                                                                                                 
0000ec51  ti_uia_loggers_LoggerStopMode_initQueueDescriptor__E                                                                                                  
0000ece1  _ZN11TinyGPSPlus12parseDecimalEPKc                                                                                                                    
0000ed71  ADCMSP432_open                                                                                                                                        
0000ee89  ti_sysbios_family_arm_m3_TaskSupport_buildTaskStack                                                                                                   
0000ef15  ti_uia_loggers_LoggerStopMode_getInstanceId__E                                                                                                        
0000ef19  ti_sysbios_heaps_HeapTrack_Instance_finalize__E                                                                                                       
0000efa5  ti_uia_loggers_LoggerStopMode_getMaxLength__E                                                                                                         
0000efa9  xdc_runtime_Text_putMod__E                                                                                                                            
0000f035  PWMTimerMSP432_close                                                                                                                                  
0000f0bd  _ZN13TinyGsmSim80017modemGetConnectedEh                                                                                                               
0000f145  ti_uia_loggers_LoggerStopMode_getPriority__E                                                                                                          
0000f149  ti_sysbios_family_arm_msp432_Timer_Module_startup__E                                                                                                  
0000f1d1  ti_sysbios_knl_Mailbox_Module_startup__E                                                                                                              
0000f259  __aeabi_cdcmpeq                                                                                                                                       
0000f259  __aeabi_cdcmple                                                                                                                                       
0000f2df  __aeabi_cdrcmple                                                                                                                                      
0000f365  PCM_gotoLPM3                                                                                                                                          
0000f3e9  PWMTimerMSP432_start                                                                                                                                  
0000f4f1  ti_sysbios_family_arm_m3_Hwi_postInit__I                                                                                                              
0000f575  ti_uia_loggers_LoggerStopMode_getTransferType__E                                                                                                      
0000f579  xdc_runtime_Memory_alloc__E                                                                                                                           
0000f5fd  SysCtl_getTLVInfo                                                                                                                                     
0000f67d  _ZN13TinyGsmSim80021getRegistrationStatusEv                                                                                                           
0000f6fd  xdc_runtime_System_Module_GateProxy_enter__E                                                                                                          
0000f701  ti_sysbios_family_arm_m3_TimestampProvider_get64__E                                                                                                   
0000f701  xdc_runtime_Timestamp_SupportProxy_get64__E                                                                                                           
0000f701  xdc_runtime_Timestamp_get64__E                                                                                                                        
0000f781  ti_sysbios_family_arm_msp432_Timer_startup__E                                                                                                         
0000f781  ti_sysbios_knl_Clock_TimerProxy_startup__E                                                                                                            
0000f819  _Znwj                                                                                                                                                 
0000f825  _ZdlPv                                                                                                                                                
0000f831  _Znaj                                                                                                                                                 
0000f83d  _ZdaPv                                                                                                                                                
0000f849  __cxa_guard_acquire                                                                                                                                   
0000f863  __cxa_guard_release                                                                                                                                   
0000f873  __cxa_guard_abort                                                                                                                                     
0000f87d  __cxa_pure_virtual                                                                                                                                    
0000f881  _Z12utilsOnResetv                                                                                                                                     
0000f979  xdc_runtime_Core_deleteObject__I                                                                                                                      
0000f9f5  _ZN13TinyGsmSim8008maintainEv                                                                                                                         
0000fa6f  __aeabi_memclr                                                                                                                                        
0000fa6f  __aeabi_memclr4                                                                                                                                       
0000fa6f  __aeabi_memclr8                                                                                                                                       
0000fa71  __aeabi_memset                                                                                                                                        
0000fa71  __aeabi_memset4                                                                                                                                       
0000fa71  __aeabi_memset8                                                                                                                                       
0000fa77  memset                                                                                                                                                
0000fae9  TimerMSP432_allocateTimerResource                                                                                                                     
0000fb61  xdc_runtime_Error_print__E                                                                                                                            
0000fbd9  xdc_runtime_System_formatNum__I                                                                                                                       
0000fc4f  _ZN10HttpClient4readEv                                                                                                                                
0000fcc5  _ZN13TinyGsmSim80014gprsDisconnectEv                                                                                                                  
0000fd39  ti_sysbios_knl_Clock_start__E                                                                                                                         
0000fdad  ti_uia_runtime_QueueDescriptor_addToList__E                                                                                                           
0000fe21  ti_sysbios_heaps_HeapMem_initPrimary__I                                                                                                               
0000fe91  _ZN13TinyGsmSim80015streamSkipUntilEcm                                                                                                                
0000ff6d  __aeabi_d2f                                                                                                                                           
0000ffdb  __aeabi_ldivmod                                                                                                                                       
00010049  _ZN10HttpClientC1ER6ClientPKct                                                                                                                        
00010049  _ZN10HttpClientC2ER6ClientPKct                                                                                                                        
000100b5  xdc_runtime_System_Module_GateProxy_leave__E                                                                                                          
000100b9  ti_sysbios_family_arm_msp432_Seconds_get__E                                                                                                           
000100b9  ti_sysbios_hal_Seconds_SecondsProxy_get__E                                                                                                            
000100b9  ti_sysbios_hal_Seconds_get__E                                                                                                                         
00010129  ti_sysbios_knl_Swi_restoreHwi__E                                                                                                                      
00010201  _ZN10HttpClient15readHeaderValueEv                                                                                                                    
0001026d  GPIO_hwiIntFxn                                                                                                                                        
000102d5  PowerMSP432_getFreqs                                                                                                                                  
0001033d  __TI_decompress_lzss                                                                                                                                  
00010411  xdc_runtime_Error_setX__E                                                                                                                             
00010479  xdc_runtime_Text_visitRope2__I                                                                                                                        
000104e1  ti_uia_loggers_LoggerStopMode_flush__E                                                                                                                
00010549  _ZN13TinyGsmSim8006sendATIJPKchcS2_S2_S2_S2_tEEEvDpT_                                                                                                 
000105ad  _ZN9MainBoard5powerEb                                                                                                                                 
00010611  frexp                                                                                                                                                 
00010611  frexpl                                                                                                                                                
00010679  ti_sysbios_knl_Clock_logTick__E                                                                                                                       
000106e1  ti_sysbios_utils_Load_logCPULoad__I                                                                                                                   
00010745  _ZN14SerialTransfer12unpackPacketEPhRKh                                                                                                               
000107a9  _Z11utilsGetUIDv                                                                                                                                      
0001080d  GPIO_setCallback                                                                                                                                      
0001086d  PowerMSP432_deepSleepPolicy                                                                                                                           
000108cd  _ZN15TinyGPSLocation3latEv                                                                                                                            
0001092d  _ZN15TinyGPSLocation3lngEv                                                                                                                            
0001098d  _ZN17SerialTransferCRC13generateTableEv                                                                                                               
000109f1  ti_sysbios_family_arm_m3_TimestampProvider_get32__E                                                                                                   
000109f1  xdc_runtime_Timestamp_SupportProxy_get32__E                                                                                                           
000109f1  xdc_runtime_Timestamp_get32__E                                                                                                                        
00010a51  xdc_runtime_Text_putLab__E                                                                                                                            
00010ab1  PCM_getCoreVoltageLevel                                                                                                                               
00010b11  ti_sysbios_family_arm_m3_Timer_start__E                                                                                                               
00010b71  ti_sysbios_knl_Swi_schedule__I                                                                                                                        
00010bd1  xdc_runtime_Startup_exec__E                                                                                                                           
00010c2d  PCM_getPowerMode                                                                                                                                      
00010c87  _ZN10HttpClient19skipResponseHeadersEv                                                                                                                
00010d3d  _ZN10HttpClient15headerAvailableEv                                                                                                                    
00010d99  GPIO_write                                                                                                                                            
00010df1  HOSTwrite                                                                                                                                             
00010e49  _ZN14SerialTransferC1Ev                                                                                                                               
00010ea1  _c_int00                                                                                                                                              
00010f51  ti_sysbios_family_arm_m3_Hwi_excReserved__I                                                                                                           
00010fa9  ti_sysbios_family_arm_m3_Hwi_initStacks__E                                                                                                            
00011001  ti_sysbios_family_arm_m3_Timer_setPeriod__E                                                                                                           
00011059  ti_sysbios_heaps_HeapMem_alloc__E                                                                                                                     
000110b1  xdc_runtime_Assert_raise__I                                                                                                                           
00011161  PCM_shutdownDevice                                                                                                                                    
000111b5  TimerMSP432_freeTimerResource                                                                                                                         
00011209  _ZN10HttpClient10resetStateEv                                                                                                                         
0001125d  _ZN13TinyGsmSim8006sendATIJPKcS2_S2_S2_S2_S2_S2_EEEvDpT_                                                                                              
000112b1  _ZN17SerialTransferCRCC1ERKhS1_                                                                                                                       
00011305  __TI_ltoa                                                                                                                                             
00011359  ti_sysbios_family_arm_m3_Hwi_create                                                                                                                   
000113b1  ti_sysbios_family_arm_msp432_Timer_initDevice__I                                                                                                      
00011405  _ZN10HttpClient10sendHeaderEPKcS1_                                                                                                                    
00011459  _ZN10HttpClient10sendHeaderEPKci                                                                                                                      
00011501  ClockP_create                                                                                                                                         
00011551  _ZN13TinyGsmSim8006sendATIJPKchcjEEEvDpT_                                                                                                             
000115a1  _ZN13TinyGsmSim8009GsmClient7connectEPKcti                                                                                                            
000115f1  _ZN17SerialTransferCRC9calculateEPhh                                                                                                                  
00011641  ti_sysbios_family_arm_m3_Hwi_Module_startup__E                                                                                                        
00011691  ti_sysbios_knl_Task_create                                                                                                                            
000116e1  xdc_runtime_SysMin_flush__E                                                                                                                           
000116e1  xdc_runtime_System_SupportProxy_flush__E                                                                                                              
000116e1  xdc_runtime_System_flush__E                                                                                                                           
00011731  atoi                                                                                                                                                  
0001177d  atol                                                                                                                                                  
000117c9  copy_in                                                                                                                                               
00011861  ti_sysbios_family_arm_m3_Hwi_excSvCall__I                                                                                                             
000118b1  ti_sysbios_family_arm_msp432_Timer_setAvailMask__E                                                                                                    
00011901  ti_sysbios_family_arm_msp432_Timer_start__E                                                                                                           
00011951  ti_sysbios_heaps_HeapMem_getStats__E                                                                                                                  
000119a1  ti_sysbios_knl_Swi_runLoop__I                                                                                                                         
000119f1  ti_sysbios_knl_Task_allBlockedFunction__I                                                                                                             
00011a3d  ti_uia_loggers_LoggerStopMode_Module_startup__E                                                                                                       
00011a89  xdc_runtime_Text_xprintf__I                                                                                                                           
00011ad5  _ZN13TinyGsmSim8009GsmClient9availableEv                                                                                                              
00011b21  Power_releaseConstraint                                                                                                                               
00011b69  _ZN10HttpClient4readEPhj                                                                                                                              
00011bb1  _ZN13TinyGsmSim8006sendATIJPKcS2_cEEEvDpT_                                                                                                            
00011bf9  _ZN13TinyGsmSim8006sendATIJPKchS2_EEEvDpT_                                                                                                            
00011c41  _ZN13TinyGsmSim8009GsmClient4initEPS_h                                                                                                                
00011c89  exit                                                                                                                                                  
00011c89  xdc_runtime_System_exitStd__E                                                                                                                         
00011cd1  __aeabi_d2iz                                                                                                                                          
00011d19  ti_sysbios_family_arm_m3_Hwi_disableInterrupt__E                                                                                                      
00011d19  ti_sysbios_hal_Hwi_HwiProxy_disableInterrupt__E                                                                                                       
00011d19  ti_sysbios_hal_Hwi_disableInterrupt__E                                                                                                                
00011d61  ti_sysbios_family_arm_m3_Hwi_enableInterrupt__E                                                                                                       
00011d61  ti_sysbios_hal_Hwi_HwiProxy_enableInterrupt__E                                                                                                        
00011d61  ti_sysbios_hal_Hwi_enableInterrupt__E                                                                                                                 
00011da9  ti_sysbios_family_arm_m3_Hwi_excNoIsr__I                                                                                                              
00011df1  ti_sysbios_family_arm_m3_Timer_initDevice__I                                                                                                          
00011e39  xdc_runtime_Core_assignParams__I                                                                                                                      
00011e81  RingBuf_put                                                                                                                                           
00011ec7  _ZN13TinyGsmSim80011streamWriteIPKcJS2_hcS2_S2_S2_S2_tS2_EEEvT_DpT0_                                                                                  
00011f0d  _ZN13TinyGsmSim80011streamWriteIPKcJhcS2_S2_S2_S2_tS2_EEEvT_DpT0_                                                                                     
00011f55  _ZN13TinyGsmSim80012waitResponseEjPKcS1_S1_S1_S1_                                                                                                     
00011f9d  PWM_init                                                                                                                                              
00011fe1  UART_init                                                                                                                                             
00012025  Watchdog_init                                                                                                                                         
00012069  _Z25__add_destruction_to_listPP20a_needed_destructionPFYvPvES2_S2_                                                                                    
000120ad  _ZN11TinyGPSPlus7fromHexEc                                                                                                                            
000120f1  _ZN11TinyGsmFifoIhLj64EE3putERKh                                                                                                                      
00012135  _ZN13TinyGsmSim80011streamWriteIhJcPKcS2_S2_S2_tS2_EEEvT_DpT0_                                                                                        
00012179  _ZN13TinyGsmSim8006sendATIJPKcbEEEvDpT_                                                                                                               
000121bd  _ZN13TinyGsmSim8006sendATIJPKchEEEvDpT_                                                                                                               
00012201  __aeabi_d2uiz                                                                                                                                         
00012249  ti_sysbios_family_arm_m3_Hwi_excNmi__I                                                                                                                
00012291  ti_sysbios_family_arm_m3_Hwi_getStackInfo__E                                                                                                          
00012291  ti_sysbios_hal_Hwi_HwiProxy_getStackInfo__E                                                                                                           
00012291  ti_sysbios_hal_Hwi_getStackInfo__E                                                                                                                    
000122d5  ti_uia_loggers_LoggerStopMode_initBuffer__I                                                                                                           
00012319  xdc_runtime_SysMin_putch__E                                                                                                                           
00012319  xdc_runtime_System_SupportProxy_putch__E                                                                                                              
00012361  xdc_runtime_System_atexit__E                                                                                                                          
000123a5  _Z23__finalize_destructionsPP20a_needed_destructionPv                                                                                                 
000123e9  ADCMSP432_close                                                                                                                                       
00012429  HwiP_create                                                                                                                                           
00012469  PWM_open                                                                                                                                              
000124a9  RingBuf_get                                                                                                                                           
000124e9  UARTMSP432_read                                                                                                                                       
00012529  UART_open                                                                                                                                             
00012629  __aeabi_uidiv                                                                                                                                         
00012629  __aeabi_uidivmod                                                                                                                                      
00012669  sprintf                                                                                                                                               
000126e7  realloc                                                                                                                                               
00012725  SemaphoreP_create                                                                                                                                     
00012761  _ZN13TinyGsmSim80011streamWriteIPKcJS2_S2_S2_S2_S2_S2_S2_S2_EEEvT_DpT0_                                                                               
000127a1  ti_sysbios_family_arm_m3_Hwi_Instance_finalize__E                                                                                                     
000127e1  ti_sysbios_family_arm_msp432_Seconds_Module_startup__E                                                                                                
0001281d  ti_sysbios_knl_Clock_create                                                                                                                           
00012859  ti_sysbios_knl_Swi_restore__E                                                                                                                         
00012899  xdc_runtime_System_processAtExit__E                                                                                                                   
000128d5  _ZN13TinyGsmSim80011streamWriteIcJPKcS2_S2_S2_tS2_EEEvT_DpT0_                                                                                         
00012911  Power_setConstraint                                                                                                                                   
00012949  WatchdogMSP432_close                                                                                                                                  
00012981  _ZN11ConnService15modemSerialStopEv                                                                                                                   
000129b9  _ZN13TinyGsmSim80011streamWriteIPKcJS2_S2_S2_S2_S2_S2_S2_EEEvT_DpT0_                                                                                  
000129f1  __TI_writemsg                                                                                                                                         
00012a1f  C$$IO$$                                                                                                                                               
00012a29  __sti___9_Airio_cpp_gps                                                                                                                               
00012a99  __aeabi_f2d                                                                                                                                           
00012ad1  ti_sysbios_knl_Task_processVitalTaskFlag__I                                                                                                           
00012b09  xdc_runtime_SysMin_abort__E                                                                                                                           
00012b09  xdc_runtime_System_SupportProxy_abort__E                                                                                                              
00012b41  _ZN13TinyGsmSim80011streamWriteIPKcJS2_hcjS2_EEEvT_DpT0_                                                                                              
00012b77  strncpy                                                                                                                                               
00012bad  _ZN10HttpClient14readHeaderNameEv                                                                                                                     
00012be3  _Z15utilsGetRandnumPhj                                                                                                                                
00012c19  _ZN11ConnService16modemSerialStartEv                                                                                                                  
00012c4d  _ZN13TinyGsmSim80011streamWriteIPKcJS2_S2_S2_S2_S2_S2_EEEvT_DpT0_                                                                                     
00012c81  _ZN13TinyGsmSim80011streamWriteIPKcJhcjS2_EEEvT_DpT0_                                                                                                 
00012cb5  _ZN13TinyGsmSim8006sendATIJPKcEEEvDpT_                                                                                                                
00012ce9  _ZN13TinyGsmSim8009GsmClientC1ERS_h                                                                                                                   
00012d1d  _ZN15TinyGPSLocation6commitEv                                                                                                                         
00012d51  _ZN15TinyGPSLocationC1Ev                                                                                                                              
00012d85  __TI_readmsg                                                                                                                                          
00012db9  __aeabi_atexit                                                                                                                                        
00012e25  strstr                                                                                                                                                
00012e59  ti_sysbios_BIOS_startFunc__I                                                                                                                          
00012e91  ti_sysbios_family_arm_m3_Timer_Module_startup__E                                                                                                      
00012ec9  ti_sysbios_family_arm_m3_Timer_periodicStub__I                                                                                                        
00012f01  ti_sysbios_hal_Hwi_checkStack                                                                                                                         
00012f35  ti_sysbios_knl_Semaphore_create                                                                                                                       
00012f69  ti_uia_loggers_LoggerStopMode_reset__E                                                                                                                
00012f9d  _ZN10HttpClient16endOfBodyReachedEv                                                                                                                   
00012fcf  _ZN10HttpClient7connectE9IPAddresst                                                                                                                   
00013001  _ZN13TinyGsmSim80011streamWriteIPKcJS2_S2_S2_tS2_EEEvT_DpT0_                                                                                          
00013033  _ZN13TinyGsmSim80014waitForNetworkEm                                                                                                                  
00013069  ti_sysbios_hal_Hwi_initStack                                                                                                                          
0001309b  WatchdogMSP432_setReload                                                                                                                              
000130a1  ti_sysbios_knl_Semaphore_pendTimeout__I                                                                                                               
000130d5  ADCMSP432_init                                                                                                                                        
00013105  _Z3powIihENSt3__216__lazy_enable_ifIXaasr3std3__213is_arithmeticIT_EE5valuesr3std3__213is_arithmeticIT0_EE5valueENS0_9__promoteIS2_S3_vEEE4typeES2_S3_
00013135  _ZN11ConnServiceC1EPFbvE                                                                                                                              
00013135  _ZN11ConnServiceC2EPFbvE                                                                                                                              
00013165  _ZN13TinyGsmSim80011streamWriteIPKcJS2_S2_S2_S2_S2_EEEvT_DpT0_                                                                                        
00013195  _ZN13TinyGsmSim80011streamWriteIPKcJS2_hS2_S2_EEEvT_DpT0_                                                                                             
00013225  ti_sysbios_BIOS_atExitFunc__I                                                                                                                         
00013259  ti_sysbios_family_arm_m3_TaskSupport_start__E                                                                                                         
00013259  ti_sysbios_knl_Task_SupportProxy_start__E                                                                                                             
00013289  ti_sysbios_gates_GateHwi_Object__create__S                                                                                                            
000132b9  ti_sysbios_gates_GateMutex_Object__create__S                                                                                                          
000132e9  ti_sysbios_heaps_HeapMem_Object__create__S                                                                                                            
00013319  ti_sysbios_heaps_HeapMem_free__E                                                                                                                      
00013349  ti_sysbios_heaps_HeapTrack_Object__create__S                                                                                                          
00013379  ti_sysbios_heaps_HeapTrack_getStats__E                                                                                                                
000133a9  ti_sysbios_knl_Semaphore_construct                                                                                                                    
000133d9  ti_sysbios_knl_Task_restore__E                                                                                                                        
00013409  ti_sysbios_utils_Load_updateCurrentThreadTime__E                                                                                                      
00013439  ti_uia_loggers_LoggerStopMode_Object__create__S                                                                                                       
00013469  xdc_runtime_Error_policyLog__I                                                                                                                        
00013499  xdc_runtime_Text_printVisFxn__I                                                                                                                       
000134c9  _ZN10HttpClient19endOfHeadersReachedEv                                                                                                                
000134f7  _ZN10HttpClient5writeEPKhj                                                                                                                            
00013525  _ZN13TinyGsmSim80011streamWriteIPKcJS2_S2_cS2_EEEvT_DpT0_                                                                                             
00013553  _ZN13TinyGsmSim80011streamWriteIPKcJS2_S2_tS2_EEEvT_DpT0_                                                                                             
00013581  _ZN13TinyGsmSim8009GsmClient7connectE9IPAddresst                                                                                                      
000135af  __aeabi_i2d                                                                                                                                           
000135dd  malloc                                                                                                                                                
0001360d  _ZN10HttpClient4postEPKcS1_iPKh                                                                                                                       
0001363b  PowerMSP432_updateFreqs                                                                                                                               
00013669  RTC_C_holdClock                                                                                                                                       
00013695  SemaphoreP_createBinary                                                                                                                               
000136c1  _ZN10HttpClient13flushClientRxEv                                                                                                                      
000136ed  _ZN10HttpClient5writeEh                                                                                                                               
00013719  _ZN13TinyGsmSim80011streamWriteIPKcJS2_S2_S2_S2_EEEvT_DpT0_                                                                                           
00013745  _ZN13TinyGsmSim80011streamWriteIPKcJS2_bS2_EEEvT_DpT0_                                                                                                
00013771  _ZN13TinyGsmSim80011streamWriteIPKcJS2_cS2_EEEvT_DpT0_                                                                                                
0001379d  _ZN13TinyGsmSim80011streamWriteIPKcJS2_hS2_EEEvT_DpT0_                                                                                                
000137c9  _ZN13TinyGsmSim80011streamWriteIPKcJS2_tS2_EEEvT_DpT0_                                                                                                
000137f5  _ZN13TinyGsmSim80011streamWriteIPKcJhS2_S2_EEEvT_DpT0_                                                                                                
00013821  _ZN13TinyGsmSim80011streamWriteIhJPKcS2_EEEvT_DpT0_                                                                                                   
0001384d  _ZN13TinyGsmSim80011streamWriteIhJcjPKcEEEvT_DpT0_                                                                                                    
00013879  _ZN13TinyGsmSim80012waitResponseEPKcS1_S1_S1_S1_                                                                                                      
000138a9  _pthread_cleanupFxn                                                                                                                                   
000138d5  strncmp                                                                                                                                               
00013901  ti_sysbios_family_arm_m3_Hwi_Handle__label__S                                                                                                         
00013901  ti_sysbios_hal_Hwi_HwiProxy_Handle__label__S                                                                                                          
00013931  ti_sysbios_family_arm_m3_TimestampProvider_Module_startup__E                                                                                          
00013961  ti_sysbios_family_arm_msp432_Timer_stop__E                                                                                                            
0001398d  ti_sysbios_gates_GateHwi_Handle__label__S                                                                                                             
0001398d  xdc_runtime_Main_Module_GateProxy_Handle__label__S                                                                                                    
0001398d  xdc_runtime_System_Module_GateProxy_Handle__label__S                                                                                                  
000139b9  ti_sysbios_BIOS_RtsGateProxy_Handle__label__S                                                                                                         
000139b9  ti_sysbios_gates_GateMutex_Handle__label__S                                                                                                           
000139b9  ti_sysbios_heaps_HeapMem_Module_GateProxy_Handle__label__S                                                                                            
000139e5  ti_sysbios_gates_GateMutex_construct                                                                                                                  
00013a11  ti_sysbios_heaps_HeapMem_Handle__label__S                                                                                                             
00013a3d  ti_sysbios_heaps_HeapTrack_Handle__label__S                                                                                                           
00013a3d  xdc_runtime_Memory_HeapProxy_Handle__label__S                                                                                                         
00013a69  ti_sysbios_knl_Clock_doTick__I                                                                                                                        
00013a95  ti_sysbios_knl_Queue_construct                                                                                                                        
00013ac1  ti_sysbios_knl_Swi_Handle__label__S                                                                                                                   
00013aed  ti_sysbios_knl_Task_Handle__label__S                                                                                                                  
00013b19  ti_uia_loggers_LoggerStopMode_Handle__label__S                                                                                                        
00013b45  _ZN13TinyGsmSim80011streamWriteIPKcJbS2_EEEvT_DpT0_                                                                                                   
00013b6f  _ZN13TinyGsmSim80011streamWriteIPKcJcS2_EEEvT_DpT0_                                                                                                   
00013b99  _ZN13TinyGsmSim80011streamWriteIPKcJhS2_EEEvT_DpT0_                                                                                                   
00013bc3  _ZN13TinyGsmSim80011streamWriteIPKcJtS2_EEEvT_DpT0_                                                                                                   
00013bed  _ZN13TinyGsmSim80011streamWriteIcJjPKcEEEvT_DpT0_                                                                                                     
00013c19  ADC14_getResult                                                                                                                                       
00013c41  PCM_gotoLPM0                                                                                                                                          
00013c69  Power_registerNotify                                                                                                                                  
00013c91  _ZN10HttpClient3getEPKc                                                                                                                               
00013cb9  _ZN13TinyGsmSim80011streamWriteIPKcJS2_S2_S2_EEEvT_DpT0_                                                                                              
00013ce1  _ZN13TinyGsmSim8009GsmClient5writeEPKc                                                                                                                
00013d09  _ZN13TinyGsmSim8009GsmClient5writeEPKhj                                                                                                               
00013d31  _ZN9IPAddressC1ERKS_                                                                                                                                  
00013dd1  memmove                                                                                                                                               
00013df9  ti_sysbios_family_arm_m3_Hwi_excHandlerAsm__I                                                                                                         
00013e21  ti_sysbios_knl_Swi_Module_startup__E                                                                                                                  
00013e49  xdc_runtime_System_aprintf_va__F                                                                                                                      
00013e71  List_put                                                                                                                                              
00013e97  List_remove                                                                                                                                           
00013ebd  _ZN11TinyGsmFifoIhLj64EE4freeEv                                                                                                                       
00013ee3  _ZN13TinyGPSCustom6commitEv                                                                                                                           
00013f09  _ZN13TinyGsmSim80011streamWriteIPKcJS2_S2_EEEvT_DpT0_                                                                                                 
00013f55  ti_sysbios_family_arm_m3_Hwi_pendSV__I                                                                                                                
00013f79  ti_sysbios_family_arm_m3_Hwi_return                                                                                                                   
00013f7b  __cxa_ia64_exit                                                                                                                                       
00013f81  xdc_runtime_System_printf_va__F                                                                                                                       
00013fa9  WDT_A_holdTimer                                                                                                                                       
00013fcd  _ZN11TinyGsmFifoIhLj64EE4sizeEv                                                                                                                       
00013ff1  _ZN13TinyGsmSim80018isNetworkConnectedEv                                                                                                              
00014015  _ZN13TinyGsmSim8009GsmClient4readEv                                                                                                                   
00014039  _ZN15TinyGPSAltitude6metersEv                                                                                                                         
0001405d  __sti___15_ConnService_cpp_3cccaf97                                                                                                                   
00014081  memcmp                                                                                                                                                
000140a5  ti_sysbios_BIOS_errorRaiseHook__I                                                                                                                     
000140c9  ti_sysbios_BIOS_registerRTSLock__I                                                                                                                    
000140ed  ti_sysbios_BIOS_removeRTSLock__I                                                                                                                      
00014111  ti_sysbios_family_arm_m3_Timer_startup__E                                                                                                             
00014139  ti_sysbios_family_arm_msp432_ClockFreqs_setFrequency__E                                                                                               
0001415d  ti_sysbios_gates_GateMutex_Object__delete__S                                                                                                          
00014181  ti_sysbios_heaps_HeapTrack_Instance_init__E                                                                                                           
000141a5  ti_sysbios_heaps_HeapTrack_Object__delete__S                                                                                                          
000141c9  ti_sysbios_knl_Clock_Module_startup__E                                                                                                                
000141ed  ti_sysbios_knl_Clock_Object__delete__S                                                                                                                
00014211  ti_sysbios_knl_Semaphore_Object__delete__S                                                                                                            
00014239  ti_sysbios_knl_Task_restoreHwi__E                                                                                                                     
0001425d  _ZN10HttpClient7connectEPKct                                                                                                                          
0001427f  _ZN13TinyGsmSim80011streamWriteIbJPKcEEEvT_DpT0_                                                                                                      
000142a1  _ZN13TinyGsmSim80011streamWriteIhJPKcEEEvT_DpT0_                                                                                                      
000142c3  _ZN13TinyGsmSim80011streamWriteItJPKcEEEvT_DpT0_                                                                                                      
000142e5  _ZN13TinyGsmSim8009GsmClient7connectEPKct                                                                                                             
00014307  xdc_runtime_SysMin_output__I                                                                                                                          
00014329  CS_setExternalClockSourceFrequency                                                                                                                    
00014349  GPIO_read                                                                                                                                             
00014369  Power_unregisterNotify                                                                                                                                
00014389  RingBuf_peek                                                                                                                                          
000143a9  _ZN11ConnService11modemTurnOnEv                                                                                                                       
000143c9  _ZN11TinyGPSDate6commitEv                                                                                                                             
000143e9  _ZN11TinyGPSTime6commitEv                                                                                                                             
00014409  _ZN13TinyGsmSim80011streamWriteIcJPKcEEEvT_DpT0_                                                                                                      
00014429  _ZN14TinyGPSDecimal6commitEv                                                                                                                          
00014449  _ZN14TinyGPSInteger6commitEv                                                                                                                          
00014469  _ZN6StreamC1Ev                                                                                                                                        
00014489  __aeabi_ui2d                                                                                                                                          
000144a9  ti_sysbios_BIOS_rtsLock__I                                                                                                                            
000144c9  ti_sysbios_family_arm_m3_Hwi_Object__delete__S                                                                                                        
000144e9  ti_sysbios_gates_GateHwi_Object__delete__S                                                                                                            
00014509  ti_sysbios_heaps_HeapMem_Object__delete__S                                                                                                            
00014529  ti_sysbios_knl_Idle_run__E                                                                                                                            
00014549  ti_sysbios_knl_Semaphore_destruct                                                                                                                     
00014569  ti_sysbios_knl_Task_Object__delete__S                                                                                                                 
00014589  ti_uia_loggers_LoggerStopMode_Object__delete__S                                                                                                       
000145a9  xdc_runtime_SysMin_Module_startup__E                                                                                                                  
000145c9  _Z10TinyGsmMinIjERKT_S2_S2_                                                                                                                           
000145e7  _Z10TinyGsmMinItERKT_S2_S2_                                                                                                                           
00014605  _ZN10RawDegreesC1Ev                                                                                                                                   
00014623  _ZN11TinyGPSDateC1Ev                                                                                                                                  
00014641  _ZN11TinyGPSTimeC1Ev                                                                                                                                  
0001465f  _ZN13TinyGsmSim80011streamWriteIjJPKcEEEvT_DpT0_                                                                                                      
0001467d  _ZN14TinyGPSDecimalC1Ev                                                                                                                               
0001469b  _ZN14TinyGPSIntegerC1Ev                                                                                                                               
000146b9  _ZN5Print5writeEPKc                                                                                                                                   
000146f5  ti_sysbios_family_xxx_Hwi_switchAndRunFunc                                                                                                            
00014715  _Z13utilsPrintUIDv                                                                                                                                    
00014731  _ZN10HttpClient4stopEv                                                                                                                                
0001474d  _ZN13TinyGsmSim80011streamWriteIPKcJS2_EEEvT_DpT0_                                                                                                    
00014769  _ZN13TinyGsmSim8009GsmClient9connectedEv                                                                                                              
00014785  _ZN13TinyGsmSim800C1ER6Stream                                                                                                                         
000147a1  _ZN5PrintC1Ev                                                                                                                                         
000147bd  _ZN6String4initEv                                                                                                                                     
000147d9  _ZN9MainBoard11sensorPowerEb                                                                                                                          
000147f5  memccpy                                                                                                                                               
00014811  ti_sysbios_family_arm_m3_Hwi_excHandler__I                                                                                                            
00014831  ti_sysbios_gates_GateMutex_Instance_init__E                                                                                                           
0001484d  ti_sysbios_knl_Queue_destruct                                                                                                                         
00014869  ti_sysbios_knl_Queue_put__E                                                                                                                           
00014889  ti_sysbios_knl_Task_enter__I                                                                                                                          
000148a5  ti_uia_loggers_LoggerStopMode_Instance_init__E                                                                                                        
000148c1  xdc_runtime_Error_raiseX__E                                                                                                                           
000148e1  xdc_runtime_SysMin_exit__E                                                                                                                            
000148e1  xdc_runtime_System_SupportProxy_exit__E                                                                                                               
000148fd  _ZN13TinyGsmSim8009GsmClient5flushEv                                                                                                                  
00014917  _ZN13TinyGsmSim8009GsmClient5writeEh                                                                                                                  
00014931  _ZN13TinyGsmSim8009GsmClientcvbEv                                                                                                                     
0001494b  copysign                                                                                                                                              
0001494b  copysignl                                                                                                                                             
00014965  free                                                                                                                                                  
00014981  ti_sysbios_knl_Task_sleepTimeout__I                                                                                                                   
0001499b  xdc_runtime_System_aprintf__E                                                                                                                         
000149b5  xdc_runtime_System_printf__E                                                                                                                          
000149d1  _ZN10HttpClientC1ER6Client                                                                                                                            
000149d1  _ZN10HttpClientC2ER6Client                                                                                                                            
000149ed  ti_sysbios_family_arm_msp432_init_Boot_init__I                                                                                                        
000149ed  xdc_runtime_Startup_reset__I                                                                                                                          
00014a05  SysCtl_A_disableNMISource                                                                                                                             
00014a1d  SysCtl_A_enableNMISource                                                                                                                              
00014a35  UART_Params_init                                                                                                                                      
00014a4d  _Z8the_taskjj                                                                                                                                         
00014a65  _ZN10HttpClient13contentLengthEv                                                                                                                      
00014a7d  _ZN10HttpClientD1Ev                                                                                                                                   
00014a95  _ZN11TinyGsmFifoIhLj64EE4_incEii                                                                                                                      
00014aad  _ZN6ClientC1Ev                                                                                                                                        
00014ac5  _ZN9PrintableC1ERKS_                                                                                                                                  
00014add  _ZN9PrintableC1Ev                                                                                                                                     
00014af5  _ZNK6String9substringEj                                                                                                                               
00014b0d  _args_main                                                                                                                                            
00014b55  __aeabi_lmul                                                                                                                                          
00014b6d  strcmp                                                                                                                                                
00014b85  strrchr                                                                                                                                               
00014b9d  ti_sysbios_BIOS_rtsUnlock__I                                                                                                                          
00014bb5  ti_sysbios_family_arm_m3_Hwi_Module__startupDone__F                                                                                                   
00014bb5  ti_sysbios_family_arm_m3_Hwi_Module__startupDone__S                                                                                                   
00014bb5  ti_sysbios_hal_Hwi_HwiProxy_Module__startupDone__S                                                                                                    
00014bcd  ti_sysbios_family_arm_m3_TaskSupport_swap__E                                                                                                          
00014bcd  ti_sysbios_knl_Task_SupportProxy_swap__E                                                                                                              
00014bd9  ti_sysbios_knl_Task_swapReturn                                                                                                                        
00014be5  ti_sysbios_family_arm_m3_Timer_Module__startupDone__F                                                                                                 
00014be5  ti_sysbios_family_arm_m3_Timer_Module__startupDone__S                                                                                                 
00014bfd  ti_sysbios_family_arm_msp432_Timer_Module__startupDone__F                                                                                             
00014bfd  ti_sysbios_family_arm_msp432_Timer_Module__startupDone__S                                                                                             
00014bfd  ti_sysbios_knl_Clock_TimerProxy_Module__startupDone__S                                                                                                
00014c19  ti_sysbios_gates_GateMutex_leave__E                                                                                                                   
00014c31  ti_sysbios_rts_ti_ReentSupport_getTlsAddr__I                                                                                                          
00014c49  xdc_runtime_Error_init__E                                                                                                                             
00014c61  xdc_runtime_System_exit__E                                                                                                                            
00014c79  _ZN10HttpClient13finishHeadersEv                                                                                                                      
00014c8f  _ZN10HttpClient13setServerPortEt                                                                                                                      
00014ca5  _ZN10HttpClient4peekEv                                                                                                                                
00014cbb  _ZN10HttpClient5flushEv                                                                                                                               
00014cd1  _ZN10HttpClient9connectedEv                                                                                                                           
00014ce7  _ZN11TinyGsmFifoIhLj64EE5clearEv                                                                                                                      
00014d13  _ZN6StringpLEc                                                                                                                                        
00014d29  _ZN6StringpLEh                                                                                                                                        
00014d3f  _ZN9MainBoard12getGSMStatusEv                                                                                                                         
00014d55  strchr                                                                                                                                                
00014d6b  ti_sysbios_BIOS_exitFunc__I                                                                                                                           
00014d81  ti_uia_loggers_LoggerStopMode_disable__E                                                                                                              
00014d97  ti_uia_loggers_LoggerStopMode_enable__E                                                                                                               
00014dad  PCM_getPowerState                                                                                                                                     
00014dc1  PWM_Params_init                                                                                                                                       
00014dd5  Power_idleFunc                                                                                                                                        
00014de9  _Z18isHexadecimalDigiti                                                                                                                               
00014dfd  _Z7isSpacei                                                                                                                                           
00014e11  _ZN10HttpClientcvbEv                                                                                                                                  
00014e25  _ZN11ConnService9keepAliveEv                                                                                                                          
00014e39  _ZN14SerialTransfer5beginER6Stream                                                                                                                    
00014e4d  _ZN14TinyGPSDecimal5valueEv                                                                                                                           
00014e61  _ZN6Client10sslConnectE9IPAddresst                                                                                                                    
00014e75  _ZN6Client10sslConnectEPKct                                                                                                                           
00014e89  _ZN9IPAddressixEi                                                                                                                                     
00014eb1  strcpy                                                                                                                                                
00014ec5  strlen                                                                                                                                                
00014ed9  ti_sysbios_family_arm_m3_Hwi_Object__get__S                                                                                                           
00014ef1  ti_sysbios_family_arm_m3_Hwi_switchFromBootStack__E                                                                                                   
00014ef1  ti_sysbios_hal_Hwi_HwiProxy_switchFromBootStack__E                                                                                                    
00014ef1  ti_sysbios_hal_Hwi_switchFromBootStack__E                                                                                                             
00014f05  ti_sysbios_heaps_HeapMem_Object__get__S                                                                                                               
00014f19  ti_sysbios_knl_Clock_tick__E                                                                                                                          
00014f2d  ti_sysbios_knl_Swi_Object__get__S                                                                                                                     
00014f41  RingBuf_construct                                                                                                                                     
00014f53  SemaphoreP_pend                                                                                                                                       
00014f65  _ZN10HttpClient13setServerNameEPKc                                                                                                                    
00014f77  _ZN10HttpClient22setHttpResponseTimeoutEj                                                                                                             
00014f89  _ZN11TinyGPSDate7setDateEPKc                                                                                                                          
00014f9b  _ZN11TinyGPSTime7setTimeEPKc                                                                                                                          
00014fad  _ZN13TinyGPSCustom3setEPKc                                                                                                                            
00014fbf  _ZN13TinyGsmSim80011streamWriteIPKcEEvT_                                                                                                              
00014fd1  _ZN14TinyGPSDecimal3setEPKc                                                                                                                           
00014fe3  _ZN14TinyGPSInteger3setEPKc                                                                                                                           
00014ff5  _ZN15StringSumHelperC1ERK6String                                                                                                                      
00015007  _ZN15TinyGPSLocation11setLatitudeEPKc                                                                                                                 
00015019  _ZN15TinyGPSLocation12setLongitudeEPKc                                                                                                                
0001502b  _ZN6StringpLEPKc                                                                                                                                      
0001503d  _ZN6StringpLERKS_                                                                                                                                     
0001504f  _ZN6StringpLEi                                                                                                                                        
00015061  ti_sysbios_hal_Hwi_Module_startup__E                                                                                                                  
00015073  wcslen                                                                                                                                                
00015085  xdc_runtime_Startup_exec__I                                                                                                                           
000150a9  HwiP_Params_init                                                                                                                                      
000150b9  PCM_gotoLPM4                                                                                                                                          
000150c9  PCM_setPowerMode                                                                                                                                      
000150d9  PCM_setPowerState                                                                                                                                     
000150e9  PowerMSP432_getNumPerfLevels                                                                                                                          
000150f9  SysCtl_A_getNMISourceStatus                                                                                                                           
00015109  SysCtl_getNMISourceStatus                                                                                                                             
00015119  WatchdogMSP432_clear                                                                                                                                  
00015129  _ZN11ConnServiceD1Ev                                                                                                                                  
00015129  _ZN11ConnServiceD2Ev                                                                                                                                  
00015139  _ZN9PrintableC2ERKS_                                                                                                                                  
00015149  isdigit                                                                                                                                               
00015159  isspace                                                                                                                                               
00015169  isxdigit                                                                                                                                              
00015189  ti_sysbios_BIOS_getCpuFreq__E                                                                                                                         
00015189  ti_sysbios_family_arm_m3_TimestampProvider_getFreq__E                                                                                                 
00015189  xdc_runtime_Timestamp_SupportProxy_getFreq__E                                                                                                         
00015189  xdc_runtime_Timestamp_getFreq__E                                                                                                                      
00015199  ti_sysbios_BIOS_setCpuFreq__E                                                                                                                         
000151a9  ti_sysbios_BIOS_setThreadType__E                                                                                                                      
000151b9  ti_sysbios_BIOS_start__E                                                                                                                              
000151c9  ti_sysbios_family_arm_m3_TaskSupport_glue                                                                                                             
000151d9  ti_sysbios_family_arm_msp432_init_Boot_disableWatchdog                                                                                                
000151e9  ti_sysbios_gates_GateMutex_Instance_finalize__E                                                                                                       
000151f9  ti_sysbios_knl_Mailbox_Object__get__S                                                                                                                 
00015209  ti_sysbios_knl_Semaphore_Instance_finalize__E                                                                                                         
00015219  ti_sysbios_knl_Swi_disable__E                                                                                                                         
00015229  ti_sysbios_knl_Task_Object__get__S                                                                                                                    
00015239  ti_sysbios_knl_Task_disable__E                                                                                                                        
00015249  ti_uia_loggers_LoggerStopMode_Object__get__S                                                                                                          
00015259  ti_uia_loggers_LoggerStopMode_isEmpty__E                                                                                                              
00015269  tolower                                                                                                                                               
00015279  toupper                                                                                                                                               
00015289  xdc_runtime_Gate_leaveSystem__E                                                                                                                       
00015299  xdc_runtime_Memory_free__E                                                                                                                            
000152a9  xdc_runtime_SysMin_ready__E                                                                                                                           
000152a9  xdc_runtime_System_SupportProxy_ready__E                                                                                                              
000152b9  xdc_runtime_Text_visitRope__I                                                                                                                         
000152c9  _Z11utilsGetUIDPh                                                                                                                                     
000152d7  _ZN10HttpClient19httpResponseTimeoutEv                                                                                                                
000152e5  _ZN10__cxxabiv117__class_type_infoD0Ev                                                                                                                
000152f3  _ZN10__cxxabiv120__si_class_type_infoD0Ev                                                                                                             
00015301  _ZN11TinyGPSHDOPC1Ev                                                                                                                                  
0001530f  _ZN11TinyGsmFifoIhLj64EEC1Ev                                                                                                                          
0001531d  _ZN12TinyGPSSpeedC1Ev                                                                                                                                 
0001532b  _ZN13TinyGPSCourseC1Ev                                                                                                                                
00015339  _ZN13TinyGsmSim8009GsmClient4peekEv                                                                                                                   
00015347  _ZN15StringSumHelperD1Ev                                                                                                                              
00015355  _ZN15TinyGPSAltitudeC1Ev                                                                                                                              
00015363  _ZNK15TinyGPSLocation7isValidEv                                                                                                                       
00015371  _ZNK6String5c_strEv                                                                                                                                   
0001537f  _ZNK6String6lengthEv                                                                                                                                  
0001538d  __TI_decompress_none                                                                                                                                  
000153a1  ti_sysbios_knl_Idle_loop__E                                                                                                                           
000153b1  ti_sysbios_knl_Queue_empty__E                                                                                                                         
000153bf  CPU_cpsid                                                                                                                                             
000153cb  CPU_cpsie                                                                                                                                             
000153d7  ClockP_delete                                                                                                                                         
000153e3  HwiP_delete                                                                                                                                           
000153f1  Power_getConstraintMask                                                                                                                               
000153fd  Power_getPerformanceLevel                                                                                                                             
00015409  SemaphoreP_delete                                                                                                                                     
00015415  _ZN10HttpClient11endOfStreamEv                                                                                                                        
00015421  _ZN10HttpClient9completedEv                                                                                                                           
0001542d  _ZN14TinyGPSDecimalC2Ev                                                                                                                               
00015439  _ZN5PrintC2Ev                                                                                                                                         
00015445  _ZN6ClientC2Ev                                                                                                                                        
00015451  _ZN6StreamC2Ev                                                                                                                                        
0001545d  _ZN9PrintableC2Ev                                                                                                                                     
00015469  __cxa_finalize                                                                                                                                        
00015475  _register_lock                                                                                                                                        
00015481  _register_unlock                                                                                                                                      
0001548d  __TI_zero_init                                                                                                                                        
00015499  ti_sysbios_family_arm_m3_Hwi_Params__init__S                                                                                                          
00015499  ti_sysbios_hal_Hwi_HwiProxy_Params__init__S                                                                                                           
000154a9  ti_sysbios_family_arm_m3_Hwi_disableFxn__E                                                                                                            
000154a9  ti_sysbios_hal_Hwi_HwiProxy_disable__E                                                                                                                
000154b9  ti_sysbios_family_arm_m3_TaskSupport_checkStack__E                                                                                                    
000154b9  ti_sysbios_knl_Task_SupportProxy_checkStack__E                                                                                                        
000154c9  ti_sysbios_family_arm_m3_TaskSupport_getStackAlignment__E                                                                                             
000154c9  ti_sysbios_knl_Task_SupportProxy_getStackAlignment__E                                                                                                 
000154d9  ti_sysbios_family_arm_msp432_Timer_getAvailMask__E                                                                                                    
000154e9  ti_sysbios_family_arm_msp432_Timer_getMaxTicks__E                                                                                                     
000154f9  ti_sysbios_gates_GateHwi_enter__E                                                                                                                     
00015509  ti_sysbios_heaps_HeapTrack_isBlocking__E                                                                                                              
00015515  ti_sysbios_knl_Clock_Params__init__S                                                                                                                  
00015521  ClockP_getSystemTicks                                                                                                                                 
00015521  ti_sysbios_knl_Clock_getTicks__E                                                                                                                      
00015531  ti_sysbios_knl_Clock_getTimerHandle__E                                                                                                                
0001553d  ti_sysbios_knl_Queue_Object__get__S                                                                                                                   
00015549  ti_sysbios_knl_Semaphore_Params__init__S                                                                                                              
00015555  ti_sysbios_knl_Task_Params__init__S                                                                                                                   
00015561  ti_sysbios_knl_Task_self__E                                                                                                                           
00015571  ti_sysbios_rts_ti_ReentSupport_taskRegHook__I                                                                                                         
00015581  xdc_runtime_Gate_enterSystem__E                                                                                                                       
00015591  xdc_runtime_Startup_rtsDone__E                                                                                                                        
0001559d  ADC_close                                                                                                                                             
000155a7  ClockP_Params_init                                                                                                                                    
000155b1  PWM_close                                                                                                                                             
000155bb  PWM_setDuty                                                                                                                                           
000155c5  PWM_start                                                                                                                                             
000155cf  UART_close                                                                                                                                            
000155d9  UART_control                                                                                                                                          
000155e3  UART_read                                                                                                                                             
000155ed  UART_write                                                                                                                                            
00015601  xdc_runtime_Memory_HeapProxy_alloc__E                                                                                                                 
0001560b  xdc_runtime_Memory_HeapProxy_free__E                                                                                                                  
00015615  xdc_runtime_Memory_HeapProxy_getStats__E                                                                                                              
0001561f  SemaphoreP_Params_init                                                                                                                                
00015627  WatchdogMSP432_init                                                                                                                                   
00015639  ti_sysbios_family_arm_m3_Hwi_doSwiRestore__I                                                                                                          
00015641  ti_sysbios_family_arm_m3_Hwi_startup__E                                                                                                               
00015641  ti_sysbios_hal_Hwi_HwiProxy_startup__E                                                                                                                
00015641  ti_sysbios_hal_Hwi_startup__E                                                                                                                         
00015659  ti_sysbios_family_arm_m3_Hwi_doTaskRestore__I                                                                                                         
00015661  HwiP_restore                                                                                                                                          
00015661  ti_sysbios_family_arm_m3_Hwi_restoreFxn__E                                                                                                            
00015661  ti_sysbios_hal_Hwi_HwiProxy_restore__E                                                                                                                
00015669  ti_sysbios_gates_GateHwi_leave__E                                                                                                                     
00015671  ti_sysbios_heaps_HeapMem_isBlocking__E                                                                                                                
00015679  ti_sysbios_knl_Clock_stop__E                                                                                                                          
00015681  ti_sysbios_knl_Queue_Instance_init__E                                                                                                                 
00015689  ti_sysbios_knl_Swi_startup__E                                                                                                                         
00015691  xdc_runtime_System_Module_startup__E                                                                                                                  
00015699  __aeabi_errno_addr                                                                                                                                    
000156a1  ti_sysbios_gates_GateHwi_query__E                                                                                                                     
000156a1  xdc_runtime_Main_Module_GateProxy_query__E                                                                                                            
000156a1  xdc_runtime_System_Module_GateProxy_query__E                                                                                                          
000156a9  ti_sysbios_BIOS_RtsGateProxy_query__E                                                                                                                 
000156a9  ti_sysbios_gates_GateMutex_query__E                                                                                                                   
000156a9  ti_sysbios_heaps_HeapMem_Module_GateProxy_query__E                                                                                                    
000156b1  ti_sysbios_knl_Clock_setTimeout__E                                                                                                                    
000156b9  ti_sysbios_knl_Task_startup__E                                                                                                                        
000156c1  ti_sysbios_BIOS_linkedWithIncorrectBootLibrary__E                                                                                                     
000156c9  ti_sysbios_family_arm_m3_TimestampProvider_rolloverFunc__E                                                                                            
000156d1  ti_sysbios_gates_GateHwi_Instance_init__E                                                                                                             
000156d8  xdc_runtime_Text_charTab__A                                                                                                                           
00017716  _ZZN13TinyGsmSim80011gprsConnectEPKcS1_S1_Es__13_                                                                                                     
00017718  uartMSP432Baudrates                                                                                                                                   
000178c8  ADC_config                                                                                                                                            
000179e8  xdc_runtime_Text_nodeTab__A                                                                                                                           
00017b00  _ctypes_                                                                                                                                              
00017c01  _ZZN13TinyGsmSim80012getModemInfoEvEs_2                                                                                                               
00017c04  uartMSP432HWAttrs                                                                                                                                     
00017cb4  PWM_config                                                                                                                                            
00017e24  ti_uia_loggers_LoggerStopMode_Module__FXNS__C                                                                                                         
00017e84  digital_pin_to_adc_index                                                                                                                              
00017ed6  _ZZN13TinyGsmSim80012getModemInfoEvEs                                                                                                                 
00017ed8  _ZTV10HttpClient                                                                                                                                      
00017f28  _ZTVN13TinyGsmSim8009GsmClientE                                                                                                                       
00017f74  _ZTV6Client                                                                                                                                           
00017fb4  ti_sysbios_knl_Task_Object__PARAMS__C                                                                                                                 
00018028  PowerMSP432_config                                                                                                                                    
00018060  xdc_runtime_Startup_sfxnTab__A                                                                                                                        
00018094  _ZZN13TinyGsmSim80011gprsConnectEPKcS1_S1_Es__12_                                                                                                     
000180c8  UART_config                                                                                                                                           
000180f8  ti_sysbios_family_arm_m3_Hwi_Object__PARAMS__C                                                                                                        
00018128  myUARTMSP432_fxnTable                                                                                                                                 
00018150  ti_sysbios_heaps_HeapMem_Module__FXNS__C                                                                                                              
00018178  ti_sysbios_heaps_HeapTrack_Module__FXNS__C                                                                                                            
000181a0  ti_uia_loggers_LoggerStopMode_Object__PARAMS__C                                                                                                       
000181c8  _ZTSN10__cxxabiv120__si_class_type_infoE                                                                                                              
000181ed  _ZZN13TinyGsmSim80012modemConnectEPKcthbiEs_3                                                                                                         
000181f0  UART_defaultParams                                                                                                                                    
00018214  myPWMTimerMSP432_fxnTable                                                                                                                             
00018238  ti_sysbios_gates_GateHwi_Module__FXNS__C                                                                                                              
0001825c  ti_sysbios_gates_GateMutex_Module__FXNS__C                                                                                                            
00018280  ti_sysbios_heaps_HeapMem_Object__PARAMS__C                                                                                                            
000182a4  ti_sysbios_knl_Clock_Object__PARAMS__C                                                                                                                
000182c8  ti_sysbios_knl_Semaphore_Object__PARAMS__C                                                                                                            
000182ec  _ZTSN10__cxxabiv117__class_type_infoE                                                                                                                 
0001830e  _ZZN13TinyGsmSim80012getModemInfoEvEs_3                                                                                                               
00018310  _ZTV14HardwareSerial                                                                                                                                  
00018330  _ZTV6Stream                                                                                                                                           
00018370  ti_sysbios_family_arm_m3_Hwi_Object__DESC__C                                                                                                          
00018390  ti_sysbios_gates_GateHwi_Object__DESC__C                                                                                                              
000183b0  ti_sysbios_gates_GateMutex_Object__DESC__C                                                                                                            
000183d0  ti_sysbios_heaps_HeapMem_Object__DESC__C                                                                                                              
000183f0  ti_sysbios_heaps_HeapTrack_Object__DESC__C                                                                                                            
00018410  ti_sysbios_knl_Clock_Object__DESC__C                                                                                                                  
00018430  ti_sysbios_knl_Queue_Object__DESC__C                                                                                                                  
00018450  ti_sysbios_knl_Semaphore_Object__DESC__C                                                                                                              
00018470  ti_sysbios_knl_Task_Object__DESC__C                                                                                                                   
00018490  ti_uia_loggers_LoggerStopMode_Object__DESC__C                                                                                                         
000184b0  _ZZN13TinyGsmSim80011gprsConnectEPKcS1_S1_Es__16_                                                                                                     
000184cd  _ZZN13TinyGsmSim80011gprsConnectEPKcS1_S1_Es                                                                                                          
000184e9  _ZTSN13TinyGsmSim8009GsmClientE                                                                                                                       
00018505  _ZZN13TinyGsmSim80012waitResponseEjR6StringPKcS3_S3_S3_S3_Es_3                                                                                        
00018508  WatchdogMSP432_fxnTable                                                                                                                               
00018524  _ZTV9MainBoard                                                                                                                                        
00018540  ti_sysbios_heaps_HeapTrack_Object__PARAMS__C                                                                                                          
0001855c  xdc_runtime_Startup_sfxnRts__A                                                                                                                        
00018576  _ZZN13TinyGsmSim8009GsmClient7connectE9IPAddresstiEs                                                                                                  
00018578  PWM_defaultParams                                                                                                                                     
00018590  myADCMSP432_fxnTable                                                                                                                                  
000185a8  ti_sysbios_gates_GateHwi_Object__PARAMS__C                                                                                                            
000185c0  ti_sysbios_gates_GateMutex_Object__PARAMS__C                                                                                                          
000185d8  ti_sysbios_knl_Queue_Object__PARAMS__C                                                                                                                
000185f0  ti_sysbios_knl_Task_hooks__A                                                                                                                          
00018608  _ZZN13TinyGsmSim80011gprsConnectEPKcS1_S1_Es_1                                                                                                        
0001861c  GPIOMSP432_config                                                                                                                                     
00018630  _ZZN13TinyGsmSim80011gprsConnectEPKcS1_S1_Es_0                                                                                                        
00018643  _ZZN13TinyGsmSim80011gprsConnectEPKcS1_S1_Es_2                                                                                                        
00018656  _ZZN13TinyGsmSim80011gprsConnectEPKcS1_S1_Es_3                                                                                                        
00018668  _ZZN13TinyGsmSim80012modemConnectEPKcthbiEs_6                                                                                                         
0001867a  _ZZN13TinyGsmSim80017modemGetConnectedEhEs_4                                                                                                          
0001868c  _ZTS14HardwareSerial                                                                                                                                  
0001869d  _ZZN13TinyGsmSim8006sendATIJPKcEEEvDpT_Es                                                                                                             
000186a0  _ZTV5Print                                                                                                                                            
000186b0  _ZTVN10__cxxabiv117__class_type_infoE                                                                                                                 
000186c0  _ZTVN10__cxxabiv120__si_class_type_infoE                                                                                                              
000186e0  ti_sysbios_knl_Idle_funcList__A                                                                                                                       
000186f0  _ZZN13TinyGsmSim80012modemConnectEPKcthbiEs_5                                                                                                         
000186ff  _ZZN13TinyGsmSim8009modemSendEPKvjhEs_1                                                                                                               
0001870e  _ZZN13TinyGsmSim80012getSimStatusEmEs_4                                                                                                               
0001871b  _ZZN13TinyGsmSim80012modemConnectEPKcthbiEs_4                                                                                                         
00018728  _ZZN13TinyGsmSim80012waitResponseEjR6StringPKcS3_S3_S3_S3_Es                                                                                          
00018735  _ZZN13TinyGsmSim80017modemGetAvailableEhEs                                                                                                            
00018742  _ZZN13TinyGsmSim80017modemGetConnectedEhEs_1                                                                                                          
0001874f  _ZZN13TinyGsmSim8009modemReadEjhEs                                                                                                                    
0001875c  _ZTS10HttpClient                                                                                                                                      
00018769  _ZTSSt9type_info                                                                                                                                      
00018776  _ZZN13TinyGsmSim80011gprsConnectEPKcS1_S1_Es_9                                                                                                        
00018782  _ZZN13TinyGsmSim80011gprsConnectEPKcS1_S1_Es__10_                                                                                                     
0001878e  _ZZN13TinyGsmSim80012waitResponseEjR6StringPKcS3_S3_S3_S3_Es_1                                                                                        
0001879a  _ZZN13TinyGsmSim80017modemGetConnectedEhEs                                                                                                            
000187a6  _ZZN13TinyGsmSim8009modemSendEPKvjhEs_0                                                                                                               
000187a8  _ZTI10HttpClient                                                                                                                                      
000187b4  _ZTI14HardwareSerial                                                                                                                                  
000187c0  _ZTI6Client                                                                                                                                           
000187cc  _ZTI6Stream                                                                                                                                           
000187d8  _ZTI9IPAddress                                                                                                                                        
000187e4  _ZTIN10__cxxabiv117__class_type_infoE                                                                                                                 
000187f0  _ZTIN10__cxxabiv120__si_class_type_infoE                                                                                                              
000187fc  _ZTIN13TinyGsmSim8009GsmClientE                                                                                                                       
00018808  Watchdog_config                                                                                                                                       
00018814  _ZTV9IPAddress                                                                                                                                        
00018820  _ZTV9Printable                                                                                                                                        
0001882c  ti_sysbios_family_arm_msp432_Seconds_daysPerMonthLeap__A                                                                                              
00018838  ti_sysbios_family_arm_msp432_Seconds_daysPerMonthNonLeap__A                                                                                           
00018844  xdc_runtime_Startup_firstFxns__A                                                                                                                      
00018850  _ZZN13TinyGsmSim80011gprsConnectEPKcS1_S1_Es_4                                                                                                        
0001885b  _ZZN13TinyGsmSim80011gprsConnectEPKcS1_S1_Es_5                                                                                                        
00018866  _ZZN13TinyGsmSim80011gprsConnectEPKcS1_S1_Es_6                                                                                                        
00018871  _ZZN13TinyGsmSim80012modemConnectEPKcthbiEs_0                                                                                                         
0001887c  _ZZN13TinyGsmSim80012modemConnectEPKcthbiEs_8                                                                                                         
00018887  _ZZN13TinyGsmSim80017modemGetAvailableEhEs_0                                                                                                          
00018892  _ZZN13TinyGsmSim80017modemGetConnectedEhEs_0                                                                                                          
0001889d  _ZZN13TinyGsmSim80017modemGetConnectedEhEs_3                                                                                                          
000188a8  _ZZN13TinyGsmSim80017modemGetConnectedEhEs_5                                                                                                          
000188b3  _ZZN13TinyGsmSim8009GsmClient4stopEvEs                                                                                                                
000188be  _ZZN13TinyGsmSim8009modemReadEjhEs_0                                                                                                                  
000188c9  _ZTS9IPAddress                                                                                                                                        
000188d4  _ZTS9MainBoard                                                                                                                                        
000188df  _ZTS9Printable                                                                                                                                        
000188ea  _ZZN13TinyGsmSim80011gprsConnectEPKcS1_S1_Es_8                                                                                                        
000188f4  _ZZN13TinyGsmSim80011gprsConnectEPKcS1_S1_Es__15_                                                                                                     
000188fe  _ZZN13TinyGsmSim80012getSimStatusEmEs_5                                                                                                               
00018908  _ZZN13TinyGsmSim80017modemGetConnectedEhEs_2                                                                                                          
00018912  _ZZN13TinyGsmSim8009modemSendEPKvjhEs                                                                                                                 
0001891c  _ZZN13TinyGsmSim80011gprsConnectEPKcS1_S1_Es_7                                                                                                        
00018925  _ZZN13TinyGsmSim80012getSimStatusEmEs_0                                                                                                               
0001892e  _ZZN13TinyGsmSim80012modemConnectEPKcthbiEs                                                                                                           
00018937  _ZZN13TinyGsmSim80012waitResponseEjR6StringPKcS3_S3_S3_S3_Es_2                                                                                        
00018940  _ZZN13TinyGsmSim80014gprsDisconnectEvEs                                                                                                               
00018949  _ZZN13TinyGsmSim80014gprsDisconnectEvEs_0                                                                                                             
00018952  _ZZN13TinyGsmSim80021getRegistrationStatusEvEs_0                                                                                                      
00018963  _ZZN13TinyGsmSim80011gprsConnectEPKcS1_S1_Es__11_                                                                                                     
0001896b  _ZZN13TinyGsmSim80012getSimStatusEmEs_2                                                                                                               
00018973  _ZZN13TinyGsmSim80012getSimStatusEmEs_3                                                                                                               
0001897b  _ZZN13TinyGsmSim80012modemConnectEPKcthbiEs_7                                                                                                         
00018983  pxmap                                                                                                                                                 
0001898b  _ZZN13TinyGsmSim80012getModemInfoEvEs_0                                                                                                               
0001898c  _ZTI5Print                                                                                                                                            
00018994  _ZTI9MainBoard                                                                                                                                        
0001899c  _ZTI9Printable                                                                                                                                        
000189a4  _ZTISt9type_info                                                                                                                                      
000189ac  _ZTS6Client                                                                                                                                           
000189b4  _ZTS6Stream                                                                                                                                           
000189bc  ti_sysbios_family_arm_m3_Hwi_excHookFuncs__A                                                                                                          
000189c4  ti_sysbios_knl_Idle_funcList__C                                                                                                                       
000189cc  ti_sysbios_knl_Task_hooks__C                                                                                                                          
000189d4  watchdogMSP432HWAttrs                                                                                                                                 
000189dc  xdc_runtime_Startup_firstFxns__C                                                                                                                      
000189e4  xdc_runtime_Startup_lastFxns__C                                                                                                                       
000189ec  _ZZN13TinyGsmSim80011gprsConnectEPKcS1_S1_Es__14_                                                                                                     
000189f3  _ZZN13TinyGsmSim80012getModemInfoEvEs_1                                                                                                               
000189fa  _ZZN13TinyGsmSim80012getSimStatusEmEs                                                                                                                 
00018a01  _ZZN13TinyGsmSim80021getRegistrationStatusEvEs                                                                                                        
00018a08  _ZTS5Print                                                                                                                                            
00018a0f  ADC_count                                                                                                                                             
00018a10  I2C_count                                                                                                                                             
00018a11  PWM_count                                                                                                                                             
00018a12  SPI_count                                                                                                                                             
00018a13  Timer_count                                                                                                                                           
00018a14  UART_count                                                                                                                                            
00018a15  Watchdog_count                                                                                                                                        
00018a16  _ZZN13TinyGsmSim80012getSimStatusEmEs_1                                                                                                               
00018a22  ti_sysbios_family_arm_m3_Hwi_Module__id__C                                                                                                            
00018a35  _ZZN13TinyGsmSim80012modemConnectEPKcthbiEs_1                                                                                                         
00018a3f  _ZZN13TinyGsmSim80012modemConnectEPKcthbiEs_2                                                                                                         
00018a43  _ZZN13TinyGsmSim80012waitResponseEjR6StringPKcS3_S3_S3_S3_Es_0                                                                                        
00018a48  ti_sysbios_family_arm_m3_Hwi_E_NMI__C                                                                                                                 
00018a4c  ti_sysbios_family_arm_m3_Hwi_E_alreadyDefined__C                                                                                                      
00018a50  ti_sysbios_family_arm_m3_Hwi_E_badIntNum__C                                                                                                           
00018a54  ti_sysbios_family_arm_m3_Hwi_E_busFault__C                                                                                                            
00018a58  ti_sysbios_family_arm_m3_Hwi_E_debugMon__C                                                                                                            
00018a5c  ti_sysbios_family_arm_m3_Hwi_E_hardFault__C                                                                                                           
00018a60  ti_sysbios_family_arm_m3_Hwi_E_memFault__C                                                                                                            
00018a64  ti_sysbios_family_arm_m3_Hwi_E_noIsr__C                                                                                                               
00018a68  ti_sysbios_family_arm_m3_Hwi_E_reserved__C                                                                                                            
00018a6c  ti_sysbios_family_arm_m3_Hwi_E_svCall__C                                                                                                              
00018a70  ti_sysbios_family_arm_m3_Hwi_E_usageFault__C                                                                                                          
00018a74  ti_sysbios_family_arm_m3_Hwi_LD_end__C                                                                                                                
00018a78  ti_sysbios_family_arm_m3_Hwi_LM_begin__C                                                                                                              
00018a7c  ti_sysbios_family_arm_m3_Hwi_Module__diagsEnabled__C                                                                                                  
00018a80  ti_sysbios_family_arm_m3_Hwi_Module__diagsIncluded__C                                                                                                 
00018a84  ti_sysbios_family_arm_m3_Hwi_Module__diagsMask__C                                                                                                     
00018a88  ti_sysbios_family_arm_m3_Hwi_Module__loggerFxn1__C                                                                                                    
00018a8c  ti_sysbios_family_arm_m3_Hwi_Module__loggerFxn8__C                                                                                                    
00018a90  ti_sysbios_family_arm_m3_Hwi_Module__loggerObj__C                                                                                                     
00018a94  ti_sysbios_family_arm_m3_Hwi_NUM_INTERRUPTS__C                                                                                                        
00018a98  ti_sysbios_family_arm_m3_Hwi_Object__count__C                                                                                                         
00018a9c  ti_sysbios_family_arm_m3_Hwi_ccr__C                                                                                                                   
00018aa0  ti_sysbios_family_arm_m3_Hwi_excHandlerFunc__C                                                                                                        
00018aa4  ti_sysbios_family_arm_m3_Hwi_excHookFuncs__C                                                                                                          
00018aa8  ti_sysbios_family_arm_m3_Hwi_nullIsrFunc__C                                                                                                           
00018aac  ti_sysbios_family_arm_m3_Hwi_priGroup__C                                                                                                              
00018ab0  ti_sysbios_family_arm_m3_Hwi_swiDisable__C                                                                                                            
00018ab4  ti_sysbios_family_arm_m3_Hwi_swiRestore__C                                                                                                            
00018ab8  ti_sysbios_family_arm_m3_TaskSupport_stackAlignment__C                                                                                                
00018abc  ti_sysbios_family_arm_m3_Timer_E_cannotSupport__C                                                                                                     
00018ac0  ti_sysbios_family_arm_m3_Timer_startupNeeded__C                                                                                                       
00018ac4  ti_sysbios_family_arm_msp432_Seconds_daysPerMonthLeap__C                                                                                              
00018ac8  ti_sysbios_family_arm_msp432_Seconds_daysPerMonthNonLeap__C                                                                                           
00018acc  ti_sysbios_family_arm_msp432_Timer_numTimerDevices__C                                                                                                 
00018ad0  ti_sysbios_family_arm_msp432_Timer_startupNeeded__C                                                                                                   
00018ad4  ti_sysbios_gates_GateMutex_A_badContext__C                                                                                                            
00018ad8  ti_sysbios_gates_GateMutex_Instance_State_sem__O                                                                                                      
00018adc  ti_sysbios_gates_GateMutex_Module__diagsEnabled__C                                                                                                    
00018ae0  ti_sysbios_gates_GateMutex_Module__diagsIncluded__C                                                                                                   
00018ae4  ti_sysbios_gates_GateMutex_Module__diagsMask__C                                                                                                       
00018ae8  ti_sysbios_hal_Hwi_E_stackOverflow__C                                                                                                                 
00018aec  ti_sysbios_heaps_HeapMem_A_align__C                                                                                                                   
00018af0  ti_sysbios_heaps_HeapMem_A_heapSize__C                                                                                                                
00018af4  ti_sysbios_heaps_HeapMem_A_invalidFree__C                                                                                                             
00018af8  ti_sysbios_heaps_HeapMem_A_zeroBlock__C                                                                                                               
00018afc  ti_sysbios_heaps_HeapMem_E_memory__C                                                                                                                  
00018b00  ti_sysbios_heaps_HeapMem_Module__diagsEnabled__C                                                                                                      
00018b04  ti_sysbios_heaps_HeapMem_Module__diagsIncluded__C                                                                                                     
00018b08  ti_sysbios_heaps_HeapMem_Module__diagsMask__C                                                                                                         
00018b0c  ti_sysbios_heaps_HeapMem_Module__gateObj__C                                                                                                           
00018b10  ti_sysbios_heaps_HeapMem_Object__count__C                                                                                                             
00018b14  ti_sysbios_heaps_HeapMem_primaryHeapBaseAddr__C                                                                                                       
00018b18  ti_sysbios_heaps_HeapMem_primaryHeapEndAddr__C                                                                                                        
00018b1c  ti_sysbios_heaps_HeapMem_reqAlign__C                                                                                                                  
00018b20  ti_sysbios_heaps_HeapTrack_A_bufOverflow__C                                                                                                           
00018b24  ti_sysbios_heaps_HeapTrack_A_doubleFree__C                                                                                                            
00018b28  ti_sysbios_heaps_HeapTrack_A_notEmpty__C                                                                                                              
00018b2c  ti_sysbios_heaps_HeapTrack_Instance_State_trackQueue__O                                                                                               
00018b30  ti_sysbios_heaps_HeapTrack_Module__diagsEnabled__C                                                                                                    
00018b34  ti_sysbios_heaps_HeapTrack_Module__diagsIncluded__C                                                                                                   
00018b38  ti_sysbios_heaps_HeapTrack_Module__diagsMask__C                                                                                                       
00018b3c  ti_sysbios_knl_Clock_A_badThreadType__C                                                                                                               
00018b40  ti_sysbios_knl_Clock_LM_begin__C                                                                                                                      
00018b44  ti_sysbios_knl_Clock_LM_tick__C                                                                                                                       
00018b48  ti_sysbios_knl_Clock_LW_delayed__C                                                                                                                    
00018b4c  ti_sysbios_knl_Clock_Module_State_clockQ__O                                                                                                           
00018b50  ti_sysbios_knl_Clock_Module__diagsEnabled__C                                                                                                          
00018b54  ti_sysbios_knl_Clock_Module__diagsIncluded__C                                                                                                         
00018b58  ti_sysbios_knl_Clock_Module__diagsMask__C                                                                                                             
00018b5c  ti_sysbios_knl_Clock_Module__loggerFxn1__C                                                                                                            
00018b60  ti_sysbios_knl_Clock_Module__loggerFxn2__C                                                                                                            
00018b64  ti_sysbios_knl_Clock_Module__loggerObj__C                                                                                                             
00018b68  ti_sysbios_knl_Clock_doTickFunc__C                                                                                                                    
00018b6c  ti_sysbios_knl_Clock_tickPeriod__C                                                                                                                    
00018b70  ti_sysbios_knl_Mailbox_Instance_State_freeQue__O                                                                                                      
00018b74  ti_sysbios_knl_Mailbox_Object__count__C                                                                                                               
00018b78  ti_sysbios_knl_Mailbox_maxTypeAlign__C                                                                                                                
00018b7c  ti_sysbios_knl_Semaphore_A_badContext__C                                                                                                              
00018b80  ti_sysbios_knl_Semaphore_A_noEvents__C                                                                                                                
00018b84  ti_sysbios_knl_Semaphore_A_overflow__C                                                                                                                
00018b88  ti_sysbios_knl_Semaphore_A_pendTaskDisabled__C                                                                                                        
00018b8c  ti_sysbios_knl_Semaphore_Instance_State_pendQ__O                                                                                                      
00018b90  ti_sysbios_knl_Semaphore_LM_pend__C                                                                                                                   
00018b94  ti_sysbios_knl_Semaphore_LM_post__C                                                                                                                   
00018b98  ti_sysbios_knl_Semaphore_Module__diagsEnabled__C                                                                                                      
00018b9c  ti_sysbios_knl_Semaphore_Module__diagsIncluded__C                                                                                                     
00018ba0  ti_sysbios_knl_Semaphore_Module__diagsMask__C                                                                                                         
00018ba4  ti_sysbios_knl_Semaphore_Module__loggerFxn2__C                                                                                                        
00018ba8  ti_sysbios_knl_Semaphore_Module__loggerFxn4__C                                                                                                        
00018bac  ti_sysbios_knl_Semaphore_Module__loggerObj__C                                                                                                         
00018bb0  ti_sysbios_knl_Swi_LD_end__C                                                                                                                          
00018bb4  ti_sysbios_knl_Swi_LM_begin__C                                                                                                                        
00018bb8  ti_sysbios_knl_Swi_LM_post__C                                                                                                                         
00018bbc  ti_sysbios_knl_Swi_Module__diagsEnabled__C                                                                                                            
00018bc0  ti_sysbios_knl_Swi_Module__diagsIncluded__C                                                                                                           
00018bc4  ti_sysbios_knl_Swi_Module__diagsMask__C                                                                                                               
00018bc8  ti_sysbios_knl_Swi_Module__loggerFxn1__C                                                                                                              
00018bcc  ti_sysbios_knl_Swi_Module__loggerFxn4__C                                                                                                              
00018bd0  ti_sysbios_knl_Swi_Module__loggerObj__C                                                                                                               
00018bd4  ti_sysbios_knl_Swi_Object__count__C                                                                                                                   
00018bd8  ti_sysbios_knl_Task_A_badPriority__C                                                                                                                  
00018bdc  ti_sysbios_knl_Task_A_badTaskState__C                                                                                                                 
00018be0  ti_sysbios_knl_Task_A_badThreadType__C                                                                                                                
00018be4  ti_sysbios_knl_Task_A_badTimeout__C                                                                                                                   
00018be8  ti_sysbios_knl_Task_A_noPendElem__C                                                                                                                   
00018bec  ti_sysbios_knl_Task_A_sleepTaskDisabled__C                                                                                                            
00018bf0  ti_sysbios_knl_Task_E_spOutOfBounds__C                                                                                                                
00018bf4  ti_sysbios_knl_Task_E_stackOverflow__C                                                                                                                
00018bf8  ti_sysbios_knl_Task_LD_block__C                                                                                                                       
00018bfc  ti_sysbios_knl_Task_LD_exit__C                                                                                                                        
00018c00  ti_sysbios_knl_Task_LD_ready__C                                                                                                                       
00018c04  ti_sysbios_knl_Task_LM_sleep__C                                                                                                                       
00018c08  ti_sysbios_knl_Task_LM_switch__C                                                                                                                      
00018c0c  ti_sysbios_knl_Task_LM_yield__C                                                                                                                       
00018c10  ti_sysbios_knl_Task_Module_State_inactiveQ__O                                                                                                         
00018c14  ti_sysbios_knl_Task_Module__diagsEnabled__C                                                                                                           
00018c18  ti_sysbios_knl_Task_Module__diagsIncluded__C                                                                                                          
00018c1c  ti_sysbios_knl_Task_Module__diagsMask__C                                                                                                              
00018c20  ti_sysbios_knl_Task_Module__loggerFxn2__C                                                                                                             
00018c24  ti_sysbios_knl_Task_Module__loggerFxn4__C                                                                                                             
00018c28  ti_sysbios_knl_Task_Module__loggerObj__C                                                                                                              
00018c2c  ti_sysbios_knl_Task_Object__count__C                                                                                                                  
00018c30  ti_sysbios_knl_Task_Object__heap__C                                                                                                                   
00018c34  ti_sysbios_knl_Task_allBlockedFunc__C                                                                                                                 
00018c38  ti_sysbios_knl_Task_defaultStackHeap__C                                                                                                               
00018c3c  ti_sysbios_knl_Task_defaultStackSize__C                                                                                                               
00018c40  ti_sysbios_knl_Task_numConstructedTasks__C                                                                                                            
00018c44  ti_sysbios_knl_Task_numPriorities__C                                                                                                                  
00018c48  ti_sysbios_rts_ti_ReentSupport_A_badThreadType__C                                                                                                     
00018c4c  ti_sysbios_rts_ti_ReentSupport_Module__diagsEnabled__C                                                                                                
00018c50  ti_sysbios_rts_ti_ReentSupport_Module__diagsIncluded__C                                                                                               
00018c54  ti_sysbios_rts_ti_ReentSupport_Module__diagsMask__C                                                                                                   
00018c58  ti_sysbios_utils_Load_LS_cpuLoad__C                                                                                                                   
00018c5c  ti_sysbios_utils_Load_Module__diagsEnabled__C                                                                                                         
00018c60  ti_sysbios_utils_Load_Module__diagsIncluded__C                                                                                                        
00018c64  ti_sysbios_utils_Load_Module__diagsMask__C                                                                                                            
00018c68  ti_sysbios_utils_Load_Module__loggerFxn1__C                                                                                                           
00018c6c  ti_sysbios_utils_Load_Module__loggerObj__C                                                                                                            
00018c70  ti_sysbios_utils_Load_postUpdate__C                                                                                                                   
00018c74  ti_sysbios_utils_Load_windowInMs__C                                                                                                                   
00018c78  ti_uia_loggers_LoggerStopMode_Module__diagsEnabled__C                                                                                                 
00018c7c  ti_uia_loggers_LoggerStopMode_Module__diagsIncluded__C                                                                                                
00018c80  ti_uia_loggers_LoggerStopMode_Module__diagsMask__C                                                                                                    
00018c84  ti_uia_loggers_LoggerStopMode_Object__count__C                                                                                                        
00018c88  ti_uia_runtime_ILoggerSnapshot_Interface__BASE__C                                                                                                     
00018c8c  ti_uia_runtime_IUIATransfer_Interface__BASE__C                                                                                                        
00018c90  xdc_runtime_Assert_E_assertFailed__C                                                                                                                  
00018c94  xdc_runtime_Core_A_initializedParams__C                                                                                                               
00018c98  xdc_runtime_Core_Module__diagsEnabled__C                                                                                                              
00018c9c  xdc_runtime_Core_Module__diagsIncluded__C                                                                                                             
00018ca0  xdc_runtime_Core_Module__diagsMask__C                                                                                                                 
00018ca4  xdc_runtime_Error_E_memory__C                                                                                                                         
00018ca8  xdc_runtime_Error_policyFxn__C                                                                                                                        
00018cac  xdc_runtime_Error_raiseHook__C                                                                                                                        
00018cb0  xdc_runtime_IFilterLogger_Interface__BASE__C                                                                                                          
00018cb4  xdc_runtime_IGateProvider_Interface__BASE__C                                                                                                          
00018cb8  xdc_runtime_IHeap_Interface__BASE__C                                                                                                                  
00018cbc  xdc_runtime_ILogger_Interface__BASE__C                                                                                                                
00018cc0  xdc_runtime_IModule_Interface__BASE__C                                                                                                                
00018cc4  xdc_runtime_Memory_defaultHeapInstance__C                                                                                                             
00018cc8  xdc_runtime_Startup_execImpl__C                                                                                                                       
00018ccc  xdc_runtime_Startup_maxPasses__C                                                                                                                      
00018cd0  xdc_runtime_Startup_sfxnRts__C                                                                                                                        
00018cd4  xdc_runtime_Startup_sfxnTab__C                                                                                                                        
00018cd8  xdc_runtime_SysMin_bufSize__C                                                                                                                         
00018cdc  xdc_runtime_SysMin_outputFunc__C                                                                                                                      
00018ce0  xdc_runtime_System_Module__gateObj__C                                                                                                                 
00018ce4  xdc_runtime_System_abortFxn__C                                                                                                                        
00018ce8  xdc_runtime_System_exitFxn__C                                                                                                                         
00018cec  xdc_runtime_System_extendFxn__C                                                                                                                       
00018cf0  xdc_runtime_System_maxAtexitHandlers__C                                                                                                               
00018cf4  xdc_runtime_Text_charTab__C                                                                                                                           
00018cf8  xdc_runtime_Text_nodeTab__C                                                                                                                           
00018cfc  xdc_runtime_Text_visitRopeFxn__C                                                                                                                      
00018d00  _ZZN13TinyGsmSim8006sendATIJPKcEEEvDpT_Es_0                                                                                                           
00018d03  _ZZN13TinyGsmSim8006sendATIJPKcS2_S2_S2_S2_S2_S2_EEEvDpT_Es                                                                                           
00018d06  _ZZN13TinyGsmSim8006sendATIJPKcS2_S2_S2_S2_S2_S2_EEEvDpT_Es_0                                                                                         
00018d09  _ZZN13TinyGsmSim8006sendATIJPKcS2_cEEEvDpT_Es                                                                                                         
00018d0c  _ZZN13TinyGsmSim8006sendATIJPKcS2_cEEEvDpT_Es_0                                                                                                       
00018d0f  _ZZN13TinyGsmSim8006sendATIJPKcbEEEvDpT_Es                                                                                                            
00018d12  _ZZN13TinyGsmSim8006sendATIJPKcbEEEvDpT_Es_0                                                                                                          
00018d15  _ZZN13TinyGsmSim8006sendATIJPKchEEEvDpT_Es                                                                                                            
00018d18  _ZZN13TinyGsmSim8006sendATIJPKchEEEvDpT_Es_0                                                                                                          
00018d1b  _ZZN13TinyGsmSim8006sendATIJPKchS2_EEEvDpT_Es                                                                                                         
00018d1e  _ZZN13TinyGsmSim8006sendATIJPKchS2_EEEvDpT_Es_0                                                                                                       
00018d21  _ZZN13TinyGsmSim8006sendATIJPKchcS2_S2_S2_S2_tEEEvDpT_Es                                                                                              
00018d24  _ZZN13TinyGsmSim8006sendATIJPKchcS2_S2_S2_S2_tEEEvDpT_Es_0                                                                                            
00018d27  _ZZN13TinyGsmSim8006sendATIJPKchcjEEEvDpT_Es                                                                                                          
00018d2a  _ZZN13TinyGsmSim8006sendATIJPKchcjEEEvDpT_Es_0                                                                                                        
00018d2d  _ZZN13TinyGsmSim8009GsmClient4stopEvEs_0                                                                                                              
00018d30  ti_sysbios_family_arm_m3_Hwi_Module__loggerDefined__C                                                                                                 
00018d32  ti_sysbios_family_arm_m3_Timer_Module__id__C                                                                                                          
00018d34  ti_sysbios_family_arm_msp432_init_Boot_bypassHFXT__C                                                                                                  
00018d36  ti_sysbios_family_arm_msp432_init_Boot_bypassLFXT__C                                                                                                  
00018d38  ti_sysbios_family_arm_msp432_init_Boot_enableHFXT__C                                                                                                  
00018d3a  ti_sysbios_family_arm_msp432_init_Boot_enableLFXT__C                                                                                                  
00018d3c  ti_sysbios_gates_GateMutex_Module__id__C                                                                                                              
00018d3e  ti_sysbios_hal_Hwi_Module__id__C                                                                                                                      
00018d40  ti_sysbios_heaps_HeapMem_Module__id__C                                                                                                                
00018d42  ti_sysbios_heaps_HeapTrack_Module__id__C                                                                                                              
00018d44  ti_sysbios_knl_Clock_Module__id__C                                                                                                                    
00018d46  ti_sysbios_knl_Clock_Module__loggerDefined__C                                                                                                         
00018d48  ti_sysbios_knl_Semaphore_Module__id__C                                                                                                                
00018d4a  ti_sysbios_knl_Semaphore_Module__loggerDefined__C                                                                                                     
00018d4c  ti_sysbios_knl_Swi_Module__id__C                                                                                                                      
00018d4e  ti_sysbios_knl_Swi_Module__loggerDefined__C                                                                                                           
00018d50  ti_sysbios_knl_Task_Module__id__C                                                                                                                     
00018d52  ti_sysbios_knl_Task_Module__loggerDefined__C                                                                                                          
00018d54  ti_sysbios_rts_ti_ReentSupport_Module__id__C                                                                                                          
00018d56  ti_sysbios_utils_Load_Module__id__C                                                                                                                   
00018d58  ti_sysbios_utils_Load_Module__loggerDefined__C                                                                                                        
00018d5a  ti_sysbios_utils_Load_updateInIdle__C                                                                                                                 
00018d5c  ti_uia_loggers_LoggerStopMode_Module__id__C                                                                                                           
00018d5e  ti_uia_loggers_LoggerStopMode_isTimestampEnabled__C                                                                                                   
00018d60  xdc_runtime_Core_Module__id__C                                                                                                                        
00018d62  xdc_runtime_Error_Module__loggerDefined__C                                                                                                            
00018d64  xdc_runtime_Error_maxDepth__C                                                                                                                         
00018d66  xdc_runtime_Memory_Module__id__C                                                                                                                      
00018d68  xdc_runtime_SysMin_flushAtExit__C                                                                                                                     
00018d6a  xdc_runtime_Text_isLoaded__C                                                                                                                          
00018d6c  xdc_runtime_Text_registryModsLastId__C                                                                                                                
00018d6e  xdc_runtime_Text_unnamedModsLastId__C                                                                                                                 
00018d70  xdc_runtime_Error_policy__C                                                                                                                           
00018d74  SHT$$INIT_ARRAY$$Base                                                                                                                                 
00018d84  SHT$$INIT_ARRAY$$Limit                                                                                                                                
00018d88  __TI_static_base__                                                                                                                                    
0001925c  __TI_Handler_Table_Base                                                                                                                               
00019268  __TI_Handler_Table_Limit                                                                                                                              
00019270  __TI_CINIT_Base                                                                                                                                       
00019280  __TI_CINIT_Limit                                                                                                                                      
20000000  __start___llvm_prf_cnts                                                                                                                               
20000000  __stop___llvm_prf_cnts                                                                                                                                
20000000  ti_sysbios_family_arm_m3_Hwi_ramVectors                                                                                                               
20000140  __primary_heap_start__                                                                                                                                
20008140  __primary_heap_end__                                                                                                                                  
20008180  uartMSP432RingBuffer1                                                                                                                                 
20008980  ti_uia_loggers_LoggerStopMode_Instance_State_2_packetArray__A                                                                                         
20008d80  xdc_runtime_SysMin_Module_State_0_outbuf__A                                                                                                           
20009180  myTransfer                                                                                                                                            
20009398  ti_sysbios_knl_Task_Instance_State_0_stack__A                                                                                                         
20009600  ti_uia_loggers_LoggerStopMode_Instance_State_1_packetArray__A                                                                                         
20009800  uartMSP432Objects                                                                                                                                     
20009a00  Serial1                                                                                                                                               
20009b64  Serial2                                                                                                                                               
20009cc8  Serial3                                                                                                                                               
20009e2c  Serial                                                                                                                                                
20009f90  ti_sysbios_family_arm_m3_Hwi_dispatchTable                                                                                                            
2000a0d0  __CIOBUF_                                                                                                                                             
2000a200  ti_uia_loggers_LoggerStopMode_Instance_State_0_packetArray__A                                                                                         
2000a300  gps                                                                                                                                                   
2000a3d8  pwmTimerMSP432Objects                                                                                                                                 
2000a468  uartMSP432RingBuffer0                                                                                                                                 
2000a4e8  uartMSP432RingBuffer2                                                                                                                                 
2000a568  uartMSP432RingBuffer3                                                                                                                                 
2000a5e8  connection                                                                                                                                            
2000a714  adcMSP432Objects                                                                                                                                      
2000a75c  watchdogMSP432Objects                                                                                                                                 
2000a768  INADDR_NONE                                                                                                                                           
2000a778  parmbuf                                                                                                                                               
2000a780  ti_uia_loggers_LoggerStopMode_Instance_State_0_hdr__A                                                                                                 
2000a7b0  ClockP_tickPeriod                                                                                                                                     
2000a7b4  __dso_handle                                                                                                                                          
2000a7b8  ti_sysbios_knl_Task_Instance_State_0_hookEnv__A                                                                                                       
2000a800  ti_uia_loggers_LoggerStopMode_Instance_State_1_hdr__A                                                                                                 
2000a880  ti_uia_loggers_LoggerStopMode_Instance_State_2_hdr__A                                                                                                 
2000a8b0  adcMSP432HWAttrs                                                                                                                                      
2000aa30  gpioCallbackFunctions                                                                                                                                 
2000ab78  gpioPinConfigs                                                                                                                                        
2000acc0  PowerMSP432_perfLevels                                                                                                                                
2000af10  ti_uia_loggers_LoggerStopMode_Object__table__V                                                                                                        
2000afac  ti_sysbios_utils_Load_Module__state__V                                                                                                                
2000b0cc  ti_sysbios_knl_Swi_Module_State_0_readyQ__A                                                                                                           
2000b14c  ti_sysbios_knl_Task_Module_State_0_readyQ__A                                                                                                          
2000b1cc  pwmTimerMSP432HWAttrs                                                                                                                                 
2000b22c  ti_sysbios_gates_GateMutex_Object__table__V                                                                                                           
2000b280  digital_pin_to_pin_function                                                                                                                           
2000b2d2  digital_pin_to_pwm_index                                                                                                                              
2000b324  ti_sysbios_knl_Task_Object__table__V                                                                                                                  
2000b370  ti_sysbios_family_arm_msp432_Timer_Object__table__V                                                                                                   
2000b3b4  ti_sysbios_knl_Task_Module__state__V                                                                                                                  
2000b3f8  ti_sysbios_family_arm_m3_Hwi_Module__state__V                                                                                                         
2000b42c  ti_sysbios_family_arm_m3_Hwi_Object__table__V                                                                                                         
2000b45c  ti_sysbios_family_arm_m3_Timer_Object__table__V                                                                                                       
2000b48c  ti_sysbios_knl_Swi_Object__table__V                                                                                                                   
2000b4bc  PowerMSP432_module                                                                                                                                    
2000b4e8  ti_sysbios_knl_Clock_Module__state__V                                                                                                                 
2000b514  ti_sysbios_BIOS_Module__state__V                                                                                                                      
2000b538  mapped_pwm_pin_ccrs                                                                                                                                   
2000b558  ti_sysbios_family_arm_msp432_Timer_Module_State_0_device__A                                                                                           
2000b578  ti_sysbios_heaps_HeapTrack_Object__table__V                                                                                                           
2000b598  xdc_runtime_Error_IgnoreBlock                                                                                                                         
2000b5b8  ti_sysbios_knl_Swi_Module__state__V                                                                                                                   
2000b5d4  ti_sysbios_heaps_HeapMem_Object__table__V                                                                                                             
2000b5ec  used_pwm_port_pins                                                                                                                                    
2000b604  _tz                                                                                                                                                   
2000b614  fixed_map_pwm_pins                                                                                                                                    
2000b624  ti_sysbios_family_arm_msp432_Timer_Module_State_0_handles__A                                                                                          
2000b634  __TI_cleanup_ptr                                                                                                                                      
2000b638  __TI_dtors_ptr                                                                                                                                        
2000b63c  __TI_enable_exit_profile_output                                                                                                                       
2000b640  _ZN10HttpClient10kUserAgentE                                                                                                                          
2000b644  _ZN10HttpClient20kContentLengthPrefixE                                                                                                                
2000b648  _ZN10HttpClient24kTransferEncodingChunkedE                                                                                                            
2000b64c  ti_sysbios_family_arm_m3_Timer_Module__state__V                                                                                                       
2000b658  ti_sysbios_family_arm_msp432_ClockFreqs_Module__state__V                                                                                              
2000b664  ti_sysbios_family_arm_msp432_Timer_Module__state__V                                                                                                   
2000b670  ti_sysbios_knl_Task_Module__root__V                                                                                                                   
2000b67c  ti_uia_runtime_QueueDescriptor_Module__state__V                                                                                                       
2000b688  xdc_runtime_SysMin_Module__state__V                                                                                                                   
2000b694  toneTimerId                                                                                                                                           
2000b698  servoTimerId                                                                                                                                          
2000b69c  analogReadShift                                                                                                                                       
2000b6a0  _lock                                                                                                                                                 
2000b6a4  _unlock                                                                                                                                               
2000b6b8  func_ptr                                                                                                                                              
2000b6c0  ti_uia_runtime_QueueDescriptor_gPtrToFirstDescriptor                                                                                                  
2000b6c4  ti_uia_runtime_QueueDescriptor_gUpdateCount                                                                                                           
2000b6c8  ti_sysbios_family_arm_m3_Hwi_Module__root__V                                                                                                          
2000b6d0  ti_sysbios_gates_GateHwi_Module__root__V                                                                                                              
2000b6d8  ti_sysbios_gates_GateMutex_Module__root__V                                                                                                            
2000b6e0  ti_sysbios_heaps_HeapMem_Module__root__V                                                                                                              
2000b6e8  ti_sysbios_heaps_HeapTrack_Module__root__V                                                                                                            
2000b6f0  ti_sysbios_knl_Clock_Module__root__V                                                                                                                  
2000b6f8  ti_sysbios_knl_Queue_Module__root__V                                                                                                                  
2000b700  ti_sysbios_knl_Semaphore_Module__root__V                                                                                                              
2000b708  ti_uia_loggers_LoggerStopMode_Module__root__V                                                                                                         
2000b710  xdc_runtime_Registry_Module__state__V                                                                                                                 
2000b718  xdc_runtime_Startup_Module__state__V                                                                                                                  
2000b720  xdc_runtime_System_Module_State_0_atexitHandlers__A                                                                                                   
2000b728  xdc_runtime_System_Module__state__V                                                                                                                   
2000b730  board                                                                                                                                                 
2000b738  main_func_sp                                                                                                                                          
2000b73c  taskNames                                                                                                                                             
2000b740  ti_sysbios_family_arm_m3_Hwi_Module_State_0_excContext__A                                                                                             
2000b744  ti_sysbios_family_arm_m3_Hwi_Module_State_0_excStack__A                                                                                               
2000b748  ti_sysbios_family_arm_m3_TimestampProvider_Module__state__V                                                                                           
2000b74c  ti_sysbios_gates_GateHwi_Object__table__V                                                                                                             
2000b750  ti_sysbios_knl_Task_Module_State_0_idleTask__A                                                                                                        
2000b754  ti_sysbios_rts_ti_ReentSupport_Module__state__V                                                                                                       
2000b758  ti_sysbios_utils_Load_Module_State_0_runningTask__A                                                                                                   
2000b75c  ti_sysbios_utils_Load_Module_State_0_taskStartTime__A                                                                                                 
2000b760  timer_ccrs_in_use                                                                                                                                     
2000b764  xdc_runtime_Memory_Module__state__V                                                                                                                   
2000b768  ti_sysbios_family_arm_m3_Hwi_Module_State_0_excActive__A                                                                                              
2000b76a  xdc_runtime_Error_Module__state__V                                                                                                                    
2000fc00  __stack                                                                                                                                               
20010000  __STACK_END                                                                                                                                           
4000480c  WDTCTL_SYM                                                                                                                                            
e000e000  ti_sysbios_family_arm_m3_Hwi_nvic                                                                                                                     
ffffffff  __TI_pprof_out_hndl                                                                                                                                   
ffffffff  __TI_prof_data_size                                                                                                                                   
ffffffff  __TI_prof_data_start                                                                                                                                  
ffffffff  __binit__                                                                                                                                             
ffffffff  __c_args__                                                                                                                                            
ffffffff  binit                                                                                                                                                 

[1546 symbols]
